Archive member included to satisfy reference by file (symbol)

c:/program files/microchip/xc32/v2.41/bin/bin/../../lib/gcc/pic32c/6.2.1/../../../../pic32c/lib/v7e-m/fpv5/hard\libpic32c.a(data_init.o)
                              build/default/production/_ext/1171490990/startup_xc32.o (__pic32c_data_initialization)
c:/program files/microchip/xc32/v2.41/bin/bin/../../lib/gcc/pic32c/6.2.1/../../../../pic32c/lib/v7e-m/fpv5/hard\libc_nano.a(lib_a-init.o)
                              build/default/production/_ext/1171490990/startup_xc32.o (__libc_init_array)
c:/program files/microchip/xc32/v2.41/bin/bin/../../lib/gcc/pic32c/6.2.1/../../../../pic32c/lib/v7e-m/fpv5/hard\libc_nano.a(lib_a-memcmp.o)
                              build/default/production/_ext/1360937237/aws_bootloader.o (memcmp)
c:/program files/microchip/xc32/v2.41/bin/bin/../../lib/gcc/pic32c/6.2.1/../../../../pic32c/lib/v7e-m/fpv5/hard\libc_nano.a(lib_a-memcpy-stub.o)
                              build/default/production/_ext/60167248/plib_efc.o (memcpy)
c:/program files/microchip/xc32/v2.41/bin/bin/../../lib/gcc/pic32c/6.2.1/../../../../pic32c/lib/v7e-m/fpv5/hard\libc_nano.a(lib_a-memset.o)
                              build/default/production/_ext/101884895/sys_time.o (memset)
c:/program files/microchip/xc32/v2.41/bin/bin/../../lib/gcc/pic32c/6.2.1/../../../../pic32c/lib/v7e-m/fpv5/hard\libc_nano.a(_lib_a-printf.cdnopsuxX.o)
                              (_printf_cdnopsuxX)
c:/program files/microchip/xc32/v2.41/bin/bin/../../lib/gcc/pic32c/6.2.1/../../../../pic32c/lib/v7e-m/fpv5/hard\libc_nano.a(lib_a-puts.o)
                              build/default/production/_ext/1360937237/aws_bootloader.o (puts)
c:/program files/microchip/xc32/v2.41/bin/bin/../../lib/gcc/pic32c/6.2.1/../../../../pic32c/lib/v7e-m/fpv5/hard\libc_nano.a(lib_a-strncpy.o)
                              build/default/production/_ext/1360937237/aws_bootloader.o (strncpy)
c:/program files/microchip/xc32/v2.41/bin/bin/../../lib/gcc/pic32c/6.2.1/../../../../pic32c/lib/v7e-m/fpv5/hard\libc_nano.a(lib_a-wbuf.o)
                              c:/program files/microchip/xc32/v2.41/bin/bin/../../lib/gcc/pic32c/6.2.1/../../../../pic32c/lib/v7e-m/fpv5/hard\libc_nano.a(lib_a-puts.o) (__swbuf_r)
c:/program files/microchip/xc32/v2.41/bin/bin/../../lib/gcc/pic32c/6.2.1/../../../../pic32c/lib/v7e-m/fpv5/hard\libc_nano.a(lib_a-wsetup.o)
                              c:/program files/microchip/xc32/v2.41/bin/bin/../../lib/gcc/pic32c/6.2.1/../../../../pic32c/lib/v7e-m/fpv5/hard\libc_nano.a(lib_a-puts.o) (__swsetup_r)
c:/program files/microchip/xc32/v2.41/bin/bin/../../lib/gcc/pic32c/6.2.1/../../../../pic32c/lib/v7e-m/fpv5/hard\libc_nano.a(lib_a-fflush.o)
                              c:/program files/microchip/xc32/v2.41/bin/bin/../../lib/gcc/pic32c/6.2.1/../../../../pic32c/lib/v7e-m/fpv5/hard\libc_nano.a(lib_a-wbuf.o) (_fflush_r)
c:/program files/microchip/xc32/v2.41/bin/bin/../../lib/gcc/pic32c/6.2.1/../../../../pic32c/lib/v7e-m/fpv5/hard\libc_nano.a(lib_a-findfp.o)
                              c:/program files/microchip/xc32/v2.41/bin/bin/../../lib/gcc/pic32c/6.2.1/../../../../pic32c/lib/v7e-m/fpv5/hard\libc_nano.a(lib_a-puts.o) (__sinit)
c:/program files/microchip/xc32/v2.41/bin/bin/../../lib/gcc/pic32c/6.2.1/../../../../pic32c/lib/v7e-m/fpv5/hard\libc_nano.a(lib_a-fwalk.o)
                              c:/program files/microchip/xc32/v2.41/bin/bin/../../lib/gcc/pic32c/6.2.1/../../../../pic32c/lib/v7e-m/fpv5/hard\libc_nano.a(lib_a-fflush.o) (_fwalk_reent)
c:/program files/microchip/xc32/v2.41/bin/bin/../../lib/gcc/pic32c/6.2.1/../../../../pic32c/lib/v7e-m/fpv5/hard\libc_nano.a(lib_a-impure.o)
                              c:/program files/microchip/xc32/v2.41/bin/bin/../../lib/gcc/pic32c/6.2.1/../../../../pic32c/lib/v7e-m/fpv5/hard\libc_nano.a(lib_a-fflush.o) (_global_impure_ptr)
c:/program files/microchip/xc32/v2.41/bin/bin/../../lib/gcc/pic32c/6.2.1/../../../../pic32c/lib/v7e-m/fpv5/hard\libc_nano.a(lib_a-makebuf.o)
                              c:/program files/microchip/xc32/v2.41/bin/bin/../../lib/gcc/pic32c/6.2.1/../../../../pic32c/lib/v7e-m/fpv5/hard\libc_nano.a(lib_a-wsetup.o) (__smakebuf_r)
c:/program files/microchip/xc32/v2.41/bin/bin/../../lib/gcc/pic32c/6.2.1/../../../../pic32c/lib/v7e-m/fpv5/hard\libc_nano.a(lib_a-nano-freer.o)
                              c:/program files/microchip/xc32/v2.41/bin/bin/../../lib/gcc/pic32c/6.2.1/../../../../pic32c/lib/v7e-m/fpv5/hard\libc_nano.a(lib_a-wsetup.o) (_free_r)
c:/program files/microchip/xc32/v2.41/bin/bin/../../lib/gcc/pic32c/6.2.1/../../../../pic32c/lib/v7e-m/fpv5/hard\libc_nano.a(lib_a-nano-mallocr.o)
                              c:/program files/microchip/xc32/v2.41/bin/bin/../../lib/gcc/pic32c/6.2.1/../../../../pic32c/lib/v7e-m/fpv5/hard\libc_nano.a(lib_a-findfp.o) (_malloc_r)
c:/program files/microchip/xc32/v2.41/bin/bin/../../lib/gcc/pic32c/6.2.1/../../../../pic32c/lib/v7e-m/fpv5/hard\libc_nano.a(_lib_a-nano-vfprintf.cdnopsuxX.o)
                              c:/program files/microchip/xc32/v2.41/bin/bin/../../lib/gcc/pic32c/6.2.1/../../../../pic32c/lib/v7e-m/fpv5/hard\libc_nano.a(_lib_a-printf.cdnopsuxX.o) (_vfprintf_cdnopsuxX)
c:/program files/microchip/xc32/v2.41/bin/bin/../../lib/gcc/pic32c/6.2.1/../../../../pic32c/lib/v7e-m/fpv5/hard\libc_nano.a(lib_a-nano-vfprintf_i.o)
                              c:/program files/microchip/xc32/v2.41/bin/bin/../../lib/gcc/pic32c/6.2.1/../../../../pic32c/lib/v7e-m/fpv5/hard\libc_nano.a(_lib_a-nano-vfprintf.cdnopsuxX.o) (_printf_common)
c:/program files/microchip/xc32/v2.41/bin/bin/../../lib/gcc/pic32c/6.2.1/../../../../pic32c/lib/v7e-m/fpv5/hard\libc_nano.a(lib_a-sbrkr.o)
                              c:/program files/microchip/xc32/v2.41/bin/bin/../../lib/gcc/pic32c/6.2.1/../../../../pic32c/lib/v7e-m/fpv5/hard\libc_nano.a(lib_a-nano-mallocr.o) (_sbrk_r)
c:/program files/microchip/xc32/v2.41/bin/bin/../../lib/gcc/pic32c/6.2.1/../../../../pic32c/lib/v7e-m/fpv5/hard\libc_nano.a(lib_a-__ssfputs.o)
                              c:/program files/microchip/xc32/v2.41/bin/bin/../../lib/gcc/pic32c/6.2.1/../../../../pic32c/lib/v7e-m/fpv5/hard\libc_nano.a(_lib_a-nano-vfprintf.cdnopsuxX.o) (__ssfputs_r)
c:/program files/microchip/xc32/v2.41/bin/bin/../../lib/gcc/pic32c/6.2.1/../../../../pic32c/lib/v7e-m/fpv5/hard\libc_nano.a(lib_a-stdio.o)
                              c:/program files/microchip/xc32/v2.41/bin/bin/../../lib/gcc/pic32c/6.2.1/../../../../pic32c/lib/v7e-m/fpv5/hard\libc_nano.a(lib_a-findfp.o) (__sread)
c:/program files/microchip/xc32/v2.41/bin/bin/../../lib/gcc/pic32c/6.2.1/../../../../pic32c/lib/v7e-m/fpv5/hard\libc_nano.a(lib_a-writer.o)
                              c:/program files/microchip/xc32/v2.41/bin/bin/../../lib/gcc/pic32c/6.2.1/../../../../pic32c/lib/v7e-m/fpv5/hard\libc_nano.a(lib_a-stdio.o) (_write_r)
c:/program files/microchip/xc32/v2.41/bin/bin/../../lib/gcc/pic32c/6.2.1/../../../../pic32c/lib/v7e-m/fpv5/hard\libc_nano.a(lib_a-closer.o)
                              c:/program files/microchip/xc32/v2.41/bin/bin/../../lib/gcc/pic32c/6.2.1/../../../../pic32c/lib/v7e-m/fpv5/hard\libc_nano.a(lib_a-stdio.o) (_close_r)
c:/program files/microchip/xc32/v2.41/bin/bin/../../lib/gcc/pic32c/6.2.1/../../../../pic32c/lib/v7e-m/fpv5/hard\libc_nano.a(lib_a-fputwc.o)
                              c:/program files/microchip/xc32/v2.41/bin/bin/../../lib/gcc/pic32c/6.2.1/../../../../pic32c/lib/v7e-m/fpv5/hard\libc_nano.a(lib_a-__ssfputs.o) (_fputwc_r)
c:/program files/microchip/xc32/v2.41/bin/bin/../../lib/gcc/pic32c/6.2.1/../../../../pic32c/lib/v7e-m/fpv5/hard\libc_nano.a(lib_a-fstatr.o)
                              c:/program files/microchip/xc32/v2.41/bin/bin/../../lib/gcc/pic32c/6.2.1/../../../../pic32c/lib/v7e-m/fpv5/hard\libc_nano.a(lib_a-makebuf.o) (_fstat_r)
c:/program files/microchip/xc32/v2.41/bin/bin/../../lib/gcc/pic32c/6.2.1/../../../../pic32c/lib/v7e-m/fpv5/hard\libc_nano.a(lib_a-isattyr.o)
                              c:/program files/microchip/xc32/v2.41/bin/bin/../../lib/gcc/pic32c/6.2.1/../../../../pic32c/lib/v7e-m/fpv5/hard\libc_nano.a(lib_a-makebuf.o) (_isatty_r)
c:/program files/microchip/xc32/v2.41/bin/bin/../../lib/gcc/pic32c/6.2.1/../../../../pic32c/lib/v7e-m/fpv5/hard\libc_nano.a(lib_a-locale.o)
                              c:/program files/microchip/xc32/v2.41/bin/bin/../../lib/gcc/pic32c/6.2.1/../../../../pic32c/lib/v7e-m/fpv5/hard\libc_nano.a(lib_a-fputwc.o) (__locale_mb_cur_max)
c:/program files/microchip/xc32/v2.41/bin/bin/../../lib/gcc/pic32c/6.2.1/../../../../pic32c/lib/v7e-m/fpv5/hard\libc_nano.a(lib_a-lseekr.o)
                              c:/program files/microchip/xc32/v2.41/bin/bin/../../lib/gcc/pic32c/6.2.1/../../../../pic32c/lib/v7e-m/fpv5/hard\libc_nano.a(lib_a-stdio.o) (_lseek_r)
c:/program files/microchip/xc32/v2.41/bin/bin/../../lib/gcc/pic32c/6.2.1/../../../../pic32c/lib/v7e-m/fpv5/hard\libc_nano.a(lib_a-mbtowc_r.o)
                              c:/program files/microchip/xc32/v2.41/bin/bin/../../lib/gcc/pic32c/6.2.1/../../../../pic32c/lib/v7e-m/fpv5/hard\libc_nano.a(lib_a-locale.o) (__ascii_mbtowc)
c:/program files/microchip/xc32/v2.41/bin/bin/../../lib/gcc/pic32c/6.2.1/../../../../pic32c/lib/v7e-m/fpv5/hard\libc_nano.a(lib_a-memchr.o)
                              c:/program files/microchip/xc32/v2.41/bin/bin/../../lib/gcc/pic32c/6.2.1/../../../../pic32c/lib/v7e-m/fpv5/hard\libc_nano.a(_lib_a-nano-vfprintf.cdnopsuxX.o) (memchr)
c:/program files/microchip/xc32/v2.41/bin/bin/../../lib/gcc/pic32c/6.2.1/../../../../pic32c/lib/v7e-m/fpv5/hard\libc_nano.a(lib_a-mlock.o)
                              c:/program files/microchip/xc32/v2.41/bin/bin/../../lib/gcc/pic32c/6.2.1/../../../../pic32c/lib/v7e-m/fpv5/hard\libc_nano.a(lib_a-nano-freer.o) (__malloc_lock)
c:/program files/microchip/xc32/v2.41/bin/bin/../../lib/gcc/pic32c/6.2.1/../../../../pic32c/lib/v7e-m/fpv5/hard\libc_nano.a(lib_a-readr.o)
                              c:/program files/microchip/xc32/v2.41/bin/bin/../../lib/gcc/pic32c/6.2.1/../../../../pic32c/lib/v7e-m/fpv5/hard\libc_nano.a(lib_a-stdio.o) (_read_r)
c:/program files/microchip/xc32/v2.41/bin/bin/../../lib/gcc/pic32c/6.2.1/../../../../pic32c/lib/v7e-m/fpv5/hard\libc_nano.a(lib_a-reent.o)
                              c:/program files/microchip/xc32/v2.41/bin/bin/../../lib/gcc/pic32c/6.2.1/../../../../pic32c/lib/v7e-m/fpv5/hard\libc_nano.a(lib_a-sbrkr.o) (errno)
c:/program files/microchip/xc32/v2.41/bin/bin/../../lib/gcc/pic32c/6.2.1/../../../../pic32c/lib/v7e-m/fpv5/hard\libc_nano.a(lib_a-strcmp.o)
                              c:/program files/microchip/xc32/v2.41/bin/bin/../../lib/gcc/pic32c/6.2.1/../../../../pic32c/lib/v7e-m/fpv5/hard\libc_nano.a(lib_a-locale.o) (strcmp)
c:/program files/microchip/xc32/v2.41/bin/bin/../../lib/gcc/pic32c/6.2.1/../../../../pic32c/lib/v7e-m/fpv5/hard\libc_nano.a(lib_a-wcrtomb.o)
                              c:/program files/microchip/xc32/v2.41/bin/bin/../../lib/gcc/pic32c/6.2.1/../../../../pic32c/lib/v7e-m/fpv5/hard\libc_nano.a(lib_a-fputwc.o) (_wcrtomb_r)
c:/program files/microchip/xc32/v2.41/bin/bin/../../lib/gcc/pic32c/6.2.1/../../../../pic32c/lib/v7e-m/fpv5/hard\libc_nano.a(lib_a-wctomb_r.o)
                              c:/program files/microchip/xc32/v2.41/bin/bin/../../lib/gcc/pic32c/6.2.1/../../../../pic32c/lib/v7e-m/fpv5/hard\libc_nano.a(lib_a-locale.o) (__ascii_wctomb)
c:/program files/microchip/xc32/v2.41/bin/bin/../../lib/gcc/pic32c/6.2.1/../../../../pic32c/lib/v7e-m/fpv5/hard\libc_nano.a(lib_a-ctype_.o)
                              c:/program files/microchip/xc32/v2.41/bin/bin/../../lib/gcc/pic32c/6.2.1/../../../../pic32c/lib/v7e-m/fpv5/hard\libc_nano.a(lib_a-locale.o) (_ctype_)
c:/program files/microchip/xc32/v2.41/bin/bin/../../lib/gcc/pic32c/6.2.1/../../../../pic32c/lib/v7e-m/fpv5/hard\libpic32c.a(_close.o)
                              c:/program files/microchip/xc32/v2.41/bin/bin/../../lib/gcc/pic32c/6.2.1/../../../../pic32c/lib/v7e-m/fpv5/hard\libc_nano.a(lib_a-closer.o) (_close)
c:/program files/microchip/xc32/v2.41/bin/bin/../../lib/gcc/pic32c/6.2.1/../../../../pic32c/lib/v7e-m/fpv5/hard\libpic32c.a(_fstat.o)
                              c:/program files/microchip/xc32/v2.41/bin/bin/../../lib/gcc/pic32c/6.2.1/../../../../pic32c/lib/v7e-m/fpv5/hard\libc_nano.a(lib_a-fstatr.o) (_fstat)
c:/program files/microchip/xc32/v2.41/bin/bin/../../lib/gcc/pic32c/6.2.1/../../../../pic32c/lib/v7e-m/fpv5/hard\libpic32c.a(_isatty.o)
                              c:/program files/microchip/xc32/v2.41/bin/bin/../../lib/gcc/pic32c/6.2.1/../../../../pic32c/lib/v7e-m/fpv5/hard\libc_nano.a(lib_a-isattyr.o) (_isatty)
c:/program files/microchip/xc32/v2.41/bin/bin/../../lib/gcc/pic32c/6.2.1/../../../../pic32c/lib/v7e-m/fpv5/hard\libpic32c.a(_lseek.o)
                              c:/program files/microchip/xc32/v2.41/bin/bin/../../lib/gcc/pic32c/6.2.1/../../../../pic32c/lib/v7e-m/fpv5/hard\libc_nano.a(lib_a-lseekr.o) (_lseek)
c:/program files/microchip/xc32/v2.41/bin/bin/../../lib/gcc/pic32c/6.2.1/../../../../pic32c/lib/v7e-m/fpv5/hard\libpic32c.a(_read.o)
                              c:/program files/microchip/xc32/v2.41/bin/bin/../../lib/gcc/pic32c/6.2.1/../../../../pic32c/lib/v7e-m/fpv5/hard\libc_nano.a(lib_a-readr.o) (_read)
c:/program files/microchip/xc32/v2.41/bin/bin/../../lib/gcc/pic32c/6.2.1/../../../../pic32c/lib/v7e-m/fpv5/hard\libpic32c.a(sbrk.o)
                              c:/program files/microchip/xc32/v2.41/bin/bin/../../lib/gcc/pic32c/6.2.1/../../../../pic32c/lib/v7e-m/fpv5/hard\libc_nano.a(lib_a-sbrkr.o) (_sbrk)
c:/program files/microchip/xc32/v2.41/bin/bin/../../lib/gcc/pic32c/6.2.1/../../../../pic32c/lib/v7e-m/fpv5/hard\libpic32c.a(_write.o)
                              c:/program files/microchip/xc32/v2.41/bin/bin/../../lib/gcc/pic32c/6.2.1/../../../../pic32c/lib/v7e-m/fpv5/hard\libc_nano.a(lib_a-writer.o) (_write)
c:/program files/microchip/xc32/v2.41/bin/bin/../../lib/gcc/pic32c/6.2.1/../../../../pic32c/lib/v7e-m/fpv5/hard\libpic32c.a(close.o)
                              c:/program files/microchip/xc32/v2.41/bin/bin/../../lib/gcc/pic32c/6.2.1/../../../../pic32c/lib/v7e-m/fpv5/hard\libpic32c.a(_close.o) (close)
c:/program files/microchip/xc32/v2.41/bin/bin/../../lib/gcc/pic32c/6.2.1/../../../../pic32c/lib/v7e-m/fpv5/hard\libpic32c.a(fstat.o)
                              c:/program files/microchip/xc32/v2.41/bin/bin/../../lib/gcc/pic32c/6.2.1/../../../../pic32c/lib/v7e-m/fpv5/hard\libpic32c.a(_fstat.o) (fstat)
c:/program files/microchip/xc32/v2.41/bin/bin/../../lib/gcc/pic32c/6.2.1/../../../../pic32c/lib/v7e-m/fpv5/hard\libpic32c.a(isatty.o)
                              c:/program files/microchip/xc32/v2.41/bin/bin/../../lib/gcc/pic32c/6.2.1/../../../../pic32c/lib/v7e-m/fpv5/hard\libpic32c.a(_isatty.o) (isatty)
c:/program files/microchip/xc32/v2.41/bin/bin/../../lib/gcc/pic32c/6.2.1/../../../../pic32c/lib/v7e-m/fpv5/hard\libpic32c.a(lseek.o)
                              c:/program files/microchip/xc32/v2.41/bin/bin/../../lib/gcc/pic32c/6.2.1/../../../../pic32c/lib/v7e-m/fpv5/hard\libpic32c.a(_lseek.o) (lseek)
c:/program files/microchip/xc32/v2.41/bin/bin/../../lib/gcc/pic32c/6.2.1/../../../../pic32c/lib/v7e-m/fpv5/hard\libpic32c.a(read.o)
                              c:/program files/microchip/xc32/v2.41/bin/bin/../../lib/gcc/pic32c/6.2.1/../../../../pic32c/lib/v7e-m/fpv5/hard\libpic32c.a(_read.o) (read)
c:/program files/microchip/xc32/v2.41/bin/bin/../../lib/gcc/pic32c/6.2.1/../../../../pic32c/lib/v7e-m/fpv5/hard\libpic32c.a(write.o)
                              c:/program files/microchip/xc32/v2.41/bin/bin/../../lib/gcc/pic32c/6.2.1/../../../../pic32c/lib/v7e-m/fpv5/hard\libpic32c.a(_write.o) (write)

Allocating common symbols
Common symbol       size              file

errno               0x4               c:/program files/microchip/xc32/v2.41/bin/bin/../../lib/gcc/pic32c/6.2.1/../../../../pic32c/lib/v7e-m/fpv5/hard\libc_nano.a(lib_a-reent.o)
appData             0x1               build/default/production/_ext/1360937237/app.o
rtt                 0x8               build/default/production/_ext/60180192/plib_rtt.o
sysObj              0x4               build/default/production/_ext/1171490990/initialization.o
aws_launch_dcpt     0x14              build/default/production/_ext/1360937237/aws_bootloader.o

Microchip PIC32 Memory-Usage Report

ROM Program-Memory Usage
section                    address  length [bytes]      (dec)  Description
-------                 ----------  -------------------------  -----------
.vectors                  0x400000          0x168         360   
.text                     0x400168           0x20          32  App's exec code 
.rodata                   0x400188          0x658        1624  Read-only const 
.rodata.crc_tbl           0x4007e0          0x400        1024   
.text._vfprintf_r_cdnop   0x400be0          0x3dc         988   
.dinit                    0x400fbc          0x2e0         736   
.text.AWS_FlashBlockWri   0x40129c          0x244         580   
.text.BootAppValidate     0x4014e0          0x1d0         464   
.text.PIO_Initialize      0x4016b0          0x1b8         440   
.text.AWS_State_Validat   0x401868          0x148         328   
.text.__sflush_r          0x4019b0          0x110         272   
.text.AWS_State_Execute   0x401ac0          0x10c         268   
.text.SYS_TIME_HwTimerC   0x401bcc          0x104         260   
.rodata._ctype_           0x401cd0          0x101         257   
.text.SYS_TIME_AddToLis   0x401dd4           0xfc         252   
.text.AWS_FlashBlockWri   0x401ed0           0xf8         248   
.text.BootLaunchApp       0x401fc8           0xf4         244   
.text._printf_common      0x4020bc           0xec         236   
.text.__swsetup_r         0x4021a8           0xdc         220   
.text.AWS_FlashPagesEra   0x402284           0xd8         216   
.text.SYS_TIME_CounterI   0x40235c           0xcc         204   
.text.TCM_Configure       0x402428           0xcc         204   
.text._puts_r             0x4024f4           0xcc         204   
.text.__swbuf_r           0x4025c0           0xbc         188   
.text._malloc_r           0x40267c           0xbc         188   
.text.BootCopyApp         0x402738           0xb4         180   
.text.AWS_FlashEraseChu   0x4027ec           0xac         172   
.text.SYS_TIME_Counter6   0x402898           0xa8         168   
.text.RTT_InterruptHand   0x402940           0xa0         160   
.text                     0x4029e0           0xa0         160  App's exec code 
.text._free_r             0x402a80           0x9c         156   
.text.SYS_TIME_RemoveFr   0x402b1c           0x98         152   
.text.SYS_TIME_ClientNo   0x402bb4           0x88         136   
.text.SYS_TIME_UpdateTi   0x402c3c           0x88         136   
.text.SYS_TIME_PLIBCall   0x402cc4           0x84         132   
.text.__fputwc            0x402d48           0x82         130   
.text.Dummy_Handler       0x402dca            0x2           2   
.text.AWS_State_SetNew    0x402dcc           0x80         128   
.text.__pic32c_data_ini   0x402e4c           0x80         128   
.text.EFC_PageWrite       0x402ecc           0x7c         124   
.text.USART1_Read         0x402f48           0x7c         124   
.text.AWS_State_SaveRun   0x402fc4           0x7c         124   
.text.__sfp               0x403040           0x78         120   
.text.__smakebuf_r        0x4030b8           0x78         120   
.text.AWS_State_WaitExe   0x403130           0x74         116   
.text.BootInvalidateApp   0x4031a4           0x74         116   
.text.SYS_TIME_UpdateTi   0x403218           0x70         112   
.text.SYS_TIME_TimerDes   0x403288           0x6a         106   
.text.__malloc_lock       0x4032f2            0x2           2   
.text.CLK_MasterClockIn   0x4032f4           0x68         104   
.text.SYS_TIME_Initiali   0x40335c           0x60          96   
.text.__sinit             0x4033bc           0x60          96   
.text.USART1_Write        0x40341c           0x5c          92   
.text.SYS_Initialize      0x403478           0x5c          92   
.text.Reset_Handler       0x4034d4           0x5c          92   
.text.BootEraseDstSpace   0x403530           0x5c          92   
.text.SYS_TIME_Resource   0x40358c           0x58          88   
.text.SYS_TIME_GetTimer   0x4035e4           0x58          88   
.text.__NVIC_SetPriorit   0x40363c           0x54          84   
.text.AWS_State_Reset     0x403690           0x54          84   
.text._fflush_r           0x4036e4           0x54          84   
.text.AWS_State_Restore   0x403738           0x50          80   
.text._wcrtomb_r          0x403788           0x50          80   
.text.RTT_AlarmValueSet   0x4037d8           0x4c          76   
.text.RTT_FrequencyGet    0x403824           0x4c          76   
.text.AWS_CrcAddBuffer    0x403870           0x4c          76   
.text.AWS_FlashPagesWri   0x4038bc           0x4c          76   
.text.__ssfputs_r         0x403908           0x4a          74   
.text.__malloc_unlock     0x403952            0x2           2   
.text.__NVIC_SetPriorit   0x403954           0x48          72   
.text.__libc_init_array   0x40399c           0x48          72   
.text.std.isra.0          0x4039e4           0x48          72   
.text.__swhatbuf_r        0x403a2c           0x48          72   
.text.__NVIC_DisableIRQ   0x403a74           0x44          68   
.text.SYS_INT_SourceDis   0x403ab8           0x44          68   
.text.SYS_TIME_Counter3   0x403afc           0x44          68   
.text.SYS_TIME_GetElaps   0x403b40           0x44          68   
.text.FPU_Enable          0x403b84           0x44          68   
.text                     0x403bc8           0x40          64  App's exec code 
.text.__NVIC_GetEnableI   0x403c08           0x40          64   
.text.SYS_TIME_Counter6   0x403c48           0x40          64   
.text.__NVIC_EnableIRQ    0x403c88           0x78         120   
.text.APP_Tasks           0x403d00           0x3c          60   
.text._fwalk_reent        0x403d3c           0x3c          60   
.text.write               0x403d78           0x3c          60   
.text.run_Application     0x403db4           0x3a          58   
.text.USART1_ErrorClear   0x403df0           0x38          56   
.text.SYS_TIME_Resource   0x403e28           0x38          56   
.text.BootAppAddressVal   0x403e60           0x38          56   
.text.__swrite            0x403e98           0x38          56   
.text.USART1_ErrorGet     0x403ed0           0x34          52   
.text.bootAssert          0x403f04           0x34          52   
.text.AWS_Bootloader_Ta   0x403f38           0x34          52   
.text.BootCopyDcpt        0x403f6c           0x34          52   
.rodata                   0x403fa0           0x33          51  Read-only const 
.text.RTT_TimerValueGet   0x403fd4           0x30          48   
.text.USART1_Initialize   0x404004           0x30          48   
.text._mon_getc           0x404034           0x30          48   
.text.TCM_Disable         0x404064           0x30          48   
.text.__sfputc_r          0x404094           0x30          48   
.text.CLK_PLLAInitializ   0x4040c4           0x2c          44   
.text.RTT_Enable          0x4040f0           0x2c          44   
.text.SYS_INT_Disable     0x40411c           0x2c          44   
.text.__sfmoreglue        0x404148           0x2c          44   
.text._sbrk               0x404174           0x2c          44   
.text._mon_putc           0x4041a0           0x2a          42   
.text.SYS_INT_Restore     0x4041ca           0x2a          42   
.text.strncpy             0x4041f4           0x2a          42   
.text.RTT_CallbackRegis   0x404220           0x28          40   
.text.__NVIC_SystemRese   0x404248           0x28          40   
.text.AWS_State_Fatal     0x404270           0x28          40   
.text.read                0x404298           0x28          40   
.text.RTT_Initialize      0x4042c0           0x24          36   
.rodata.awsStateFncTbl    0x4042e4           0x24          36   
.text.AWS_EFC_Command_R   0x404308           0x24          36   
.text._printf_cdnopsuxX   0x40432c           0x24          36   
.text.__sseek             0x404350           0x24          36   
.text._write_r            0x404374           0x24          36   
.text._fstat_r            0x404398           0x24          36   
.text._lseek_r            0x4043bc           0x24          36   
.text.__ascii_mbtowc      0x4043e0           0x24          36   
.text._read_r             0x404404           0x24          36   
.text.NVIC_Initialize     0x404428           0x22          34   
.text.__sread             0x40444a           0x22          34   
.text.RTT_Disable         0x40446c           0x20          32   
.text.AWS_CrcInitEx       0x40448c           0x20          32   
.rodata.__sf_fake_stder   0x4044ac           0x20          32   
.rodata.__sf_fake_stdin   0x4044cc           0x20          32   
.rodata.__sf_fake_stdou   0x4044ec           0x20          32   
.text._sbrk_r             0x40450c           0x20          32   
.text._close_r            0x40452c           0x20          32   
.text._isatty_r           0x40454c           0x20          32   
.text.memcmp              0x40456c           0x1e          30   
.text.CLOCK_Initialize    0x40458c           0x1c          28   
.text.EFC_Initialize      0x4045a8           0x1c          28   
.rodata.sysTimePlibAPI    0x4045c4           0x1c          28   
.text._fputwc_r           0x4045e0           0x1c          28   
.text.__locale_mb_cur_m   0x4045fc           0x1c          28   
.text.__ascii_wctomb      0x404618           0x1a          26   
.text.SYS_TIME_Frequenc   0x404634           0x18          24   
.rodata.__func__.10045    0x40464c           0x18          24   
.text.AWS_CrcResult       0x404664           0x18          24   
.text.AWS_EFC_Command     0x40467c           0x18          24   
.text.APP_Initialize      0x404694           0x18          24   
.text.memcpy              0x4046ac           0x16          22   
.rodata.__func__.10084    0x4046c4           0x14          20   
.text._vfprintf_cdnopsu   0x4046d8           0x14          20   
.text.AWS_State_Error     0x4046ec           0x10          16   
.rodata.__func__.10103    0x4046fc           0x10          16   
.text.AWS_CrcInit         0x40470c           0x10          16   
.text.main                0x40471c           0x10          16   
.text.memset              0x40472c           0x10          16   
.text.puts                0x40473c           0x10          16   
.text.SYS_Tasks           0x40474c            0xc          12   
.rodata.__func__.10094    0x404758            0xc          12   
.text._cleanup_r          0x404764            0xc          12   
.text.fstat               0x404770            0xc          12   
.rodata                   0x40477c            0xb          11  Read-only const 
.rodata.sysTimeInitData   0x404788            0x8           8   
.text.__sclose            0x404790            0x8           8   
.text.close               0x404798            0x8           8   
.text.NonMaskableInt_Ha   0x4047a0            0x6           6   
.text.HardFault_Handler   0x4047a6            0x6           6   
.text.DebugMonitor_Hand   0x4047ac            0x6           6   
.text.MemoryManagement_   0x4047b2            0x6           6   
.text.BusFault_Handler    0x4047b8            0x6           6   
.text.UsageFault_Handle   0x4047be            0x6           6   
.rodata._global_impure_   0x4047c4            0x4           4   
.text._close              0x4047c8            0x4           4   
.text._fstat              0x4047cc            0x4           4   
.text._isatty             0x4047d0            0x4           4   
.text._lseek              0x4047d4            0x4           4   
.text._read               0x4047d8            0x4           4   
.text._write              0x4047dc            0x4           4   
.text.isatty              0x4047e0            0x4           4   
.text.lseek               0x4047e4            0x4           4   
      Total ROM used  :      0x47d9       18393  28.1% of 0x10000
        --------------------------------------------------------------------------
         Total Program Memory used  :      0x47d9       18393  28.1% of 0x10000
        --------------------------------------------------------------------------


RAM Data-Memory Usage
section                    address  length [bytes]      (dec)  Description
-------                 ----------  -------------------------  -----------
.bss                    0x20400000           0x28          40  Uninitialized data 
.data.__global_locale   0x20400028          0x16c         364   
.bss.timers             0x20400194           0xa0         160   
.data.impure_data       0x20400234           0x60          96   
.bss.gSystemCounterObj  0x20400294           0x38          56   
.bss                    0x204002cc           0x1c          28  Uninitialized data 
.bss.t_start_exec       0x204002e8            0x8           8   
.bss.status             0x204002f0            0x4           4   
.bss.gpnvmReg.9651      0x204002f4            0x4           4   
.bss.cmd.9652           0x204002f8            0x4           4   
.bss.app_img_to_exec    0x204002fc            0x4           4   
.bss.app_reset_addr_ovr 0x20400300            0x4           4   
.bss.crc_lfsr           0x20400304            0x4           4   
.data._impure_ptr       0x20400308            0x4           4   
.bss.__malloc_free_list 0x2040030c            0x4           4   
.bss.__malloc_sbrk_star 0x20400310            0x4           4   
.bss                    0x20400314            0x4           4  Uninitialized data 
.bss.aws_boot_state     0x20400318            0x1           1   
         Total RAM used  :       0x319         793  0.2% of 0x60000
        --------------------------------------------------------------------------
            Total Data Memory used  :       0x319         793  0.2% of 0x60000
        --------------------------------------------------------------------------


Dynamic Data-Memory Reservation
section                    address  length [bytes]      (dec)  Description
-------                 ----------  -------------------------  -----------
heap                    0x20400320          0x200         512  Reserved for heap 
stack                   0x20400538        0x5fab8      391864  Reserved for stack 

        --------------------------------------------------------------------------

Discarded input sections

 .text          0x00000000        0x0 c:/program files/microchip/xc32/v2.41/bin/bin/../../lib/gcc/pic32c/6.2.1/v7e-m/fpv5/hard/crti.o
 .data          0x00000000        0x0 c:/program files/microchip/xc32/v2.41/bin/bin/../../lib/gcc/pic32c/6.2.1/v7e-m/fpv5/hard/crti.o
 .bss           0x00000000        0x0 c:/program files/microchip/xc32/v2.41/bin/bin/../../lib/gcc/pic32c/6.2.1/v7e-m/fpv5/hard/crti.o
 .data          0x00000000        0x4 c:/program files/microchip/xc32/v2.41/bin/bin/../../lib/gcc/pic32c/6.2.1/v7e-m/fpv5/hard/crtbegin.o
 .text          0x00000000        0x0 build/default/production/_ext/60165520/plib_clk.o
 .data          0x00000000        0x0 build/default/production/_ext/60165520/plib_clk.o
 .bss           0x00000000        0x0 build/default/production/_ext/60165520/plib_clk.o
 .text          0x00000000        0x0 build/default/production/_ext/60167248/plib_efc.o
 .data          0x00000000        0x0 build/default/production/_ext/60167248/plib_efc.o
 .bss           0x00000000        0x0 build/default/production/_ext/60167248/plib_efc.o
 .text.EFC_Read
                0x00000000       0x22 build/default/production/_ext/60167248/plib_efc.o
 .text.EFC_SectorErase
                0x00000000       0x4c build/default/production/_ext/60167248/plib_efc.o
 .text.EFC_QuadWordWrite
                0x00000000       0x6c build/default/production/_ext/60167248/plib_efc.o
 .text.EFC_RegionLock
                0x00000000       0x44 build/default/production/_ext/60167248/plib_efc.o
 .text.EFC_RegionUnlock
                0x00000000       0x44 build/default/production/_ext/60167248/plib_efc.o
 .text.EFC_IsBusy
                0x00000000       0x38 build/default/production/_ext/60167248/plib_efc.o
 .text.EFC_ErrorGet
                0x00000000       0x28 build/default/production/_ext/60167248/plib_efc.o
 .text          0x00000000        0x0 build/default/production/_ext/1865468468/plib_nvic.o
 .data          0x00000000        0x0 build/default/production/_ext/1865468468/plib_nvic.o
 .bss           0x00000000        0x0 build/default/production/_ext/1865468468/plib_nvic.o
 .text          0x00000000        0x0 build/default/production/_ext/60177924/plib_pio.o
 .data          0x00000000        0x0 build/default/production/_ext/60177924/plib_pio.o
 .bss           0x00000000        0x0 build/default/production/_ext/60177924/plib_pio.o
 .text.PIO_PortRead
                0x00000000       0x18 build/default/production/_ext/60177924/plib_pio.o
 .text.PIO_PortWrite
                0x00000000       0x2e build/default/production/_ext/60177924/plib_pio.o
 .text.PIO_PortLatchRead
                0x00000000       0x18 build/default/production/_ext/60177924/plib_pio.o
 .text.PIO_PortSet
                0x00000000       0x1c build/default/production/_ext/60177924/plib_pio.o
 .text.PIO_PortClear
                0x00000000       0x1c build/default/production/_ext/60177924/plib_pio.o
 .text.PIO_PortToggle
                0x00000000       0x22 build/default/production/_ext/60177924/plib_pio.o
 .text.PIO_PortInputEnable
                0x00000000       0x1c build/default/production/_ext/60177924/plib_pio.o
 .text.PIO_PortOutputEnable
                0x00000000       0x1c build/default/production/_ext/60177924/plib_pio.o
 .text          0x00000000        0x0 build/default/production/_ext/60180192/plib_rtt.o
 .data          0x00000000        0x0 build/default/production/_ext/60180192/plib_rtt.o
 .bss           0x00000000        0x0 build/default/production/_ext/60180192/plib_rtt.o
 .text.RTT_PrescalarUpdate
                0x00000000       0x54 build/default/production/_ext/60180192/plib_rtt.o
 .text.RTT_EnableInterrupt
                0x00000000       0x24 build/default/production/_ext/60180192/plib_rtt.o
 .text.RTT_DisableInterrupt
                0x00000000       0x28 build/default/production/_ext/60180192/plib_rtt.o
 .text          0x00000000        0x0 build/default/production/_ext/2001315827/plib_usart1.o
 .data          0x00000000        0x0 build/default/production/_ext/2001315827/plib_usart1.o
 .bss           0x00000000        0x0 build/default/production/_ext/2001315827/plib_usart1.o
 .text.USART1_SerialSetup
                0x00000000       0xc8 build/default/production/_ext/2001315827/plib_usart1.o
 .text.USART1_ReadByte
                0x00000000       0x1c build/default/production/_ext/2001315827/plib_usart1.o
 .text.USART1_WriteByte
                0x00000000       0x30 build/default/production/_ext/2001315827/plib_usart1.o
 .text.USART1_TransmitterIsReady
                0x00000000       0x24 build/default/production/_ext/2001315827/plib_usart1.o
 .text.USART1_TransmitComplete
                0x00000000       0x28 build/default/production/_ext/2001315827/plib_usart1.o
 .text.USART1_ReceiverIsReady
                0x00000000       0x24 build/default/production/_ext/2001315827/plib_usart1.o
 .text          0x00000000        0x0 build/default/production/_ext/163028504/xc32_monitor.o
 .data          0x00000000        0x0 build/default/production/_ext/163028504/xc32_monitor.o
 .bss           0x00000000        0x0 build/default/production/_ext/163028504/xc32_monitor.o
 .text          0x00000000        0x0 build/default/production/_ext/1881668453/sys_int.o
 .data          0x00000000        0x0 build/default/production/_ext/1881668453/sys_int.o
 .bss           0x00000000        0x0 build/default/production/_ext/1881668453/sys_int.o
 .text.__NVIC_EnableIRQ
                0x00000000       0x3c build/default/production/_ext/1881668453/sys_int.o
 .text.SYS_INT_Enable
                0x00000000       0x14 build/default/production/_ext/1881668453/sys_int.o
 .text.SYS_INT_SourceRestore
                0x00000000       0x2a build/default/production/_ext/1881668453/sys_int.o
 .text          0x00000000        0x0 build/default/production/_ext/101884895/sys_time.o
 .data          0x00000000        0x0 build/default/production/_ext/101884895/sys_time.o
 .bss           0x00000000        0x0 build/default/production/_ext/101884895/sys_time.o
 .data.gSysTimeTokenCount
                0x00000000        0x2 build/default/production/_ext/101884895/sys_time.o
 .text.SYS_TIME_UPDATE_TOKEN
                0x00000000       0x2c build/default/production/_ext/101884895/sys_time.o
 .text.SYS_TIME_MAKE_HANDLE
                0x00000000       0x24 build/default/production/_ext/101884895/sys_time.o
 .text.SYS_TIME_GetTotalElapsedCount
                0x00000000       0xa8 build/default/production/_ext/101884895/sys_time.o
 .text.SYS_TIME_TimerAdd
                0x00000000       0x6c build/default/production/_ext/101884895/sys_time.o
 .text.SYS_TIME_TimerObjectCreate
                0x00000000       0xf8 build/default/production/_ext/101884895/sys_time.o
 .text.SYS_TIME_Deinitialize
                0x00000000       0x4c build/default/production/_ext/101884895/sys_time.o
 .text.SYS_TIME_Status
                0x00000000       0x34 build/default/production/_ext/101884895/sys_time.o
 .text.SYS_TIME_CounterGet
                0x00000000       0x1a build/default/production/_ext/101884895/sys_time.o
 .text.SYS_TIME_CounterSet
                0x00000000       0x38 build/default/production/_ext/101884895/sys_time.o
 .text.SYS_TIME_CountToUS
                0x00000000       0x4c build/default/production/_ext/101884895/sys_time.o
 .text.SYS_TIME_CountToMS
                0x00000000       0x4c build/default/production/_ext/101884895/sys_time.o
 .text.SYS_TIME_USToCount
                0x00000000       0x54 build/default/production/_ext/101884895/sys_time.o
 .text.SYS_TIME_MSToCount
                0x00000000       0x54 build/default/production/_ext/101884895/sys_time.o
 .text.SYS_TIME_TimerCreate
                0x00000000       0x3a build/default/production/_ext/101884895/sys_time.o
 .text.SYS_TIME_TimerReload
                0x00000000       0xc8 build/default/production/_ext/101884895/sys_time.o
 .text.SYS_TIME_TimerStart
                0x00000000       0x90 build/default/production/_ext/101884895/sys_time.o
 .text.SYS_TIME_TimerStop
                0x00000000       0x6c build/default/production/_ext/101884895/sys_time.o
 .text.SYS_TIME_TimerCounterGet
                0x00000000       0x5a build/default/production/_ext/101884895/sys_time.o
 .text.SYS_TIME_TimerPeriodHasExpired
                0x00000000       0x4c build/default/production/_ext/101884895/sys_time.o
 .text.SYS_TIME_DelayUS
                0x00000000       0x5c build/default/production/_ext/101884895/sys_time.o
 .text.SYS_TIME_DelayMS
                0x00000000       0x5c build/default/production/_ext/101884895/sys_time.o
 .text.SYS_TIME_DelayIsComplete
                0x00000000       0x2c build/default/production/_ext/101884895/sys_time.o
 .text.SYS_TIME_CallbackRegisterUS
                0x00000000       0x5a build/default/production/_ext/101884895/sys_time.o
 .text.SYS_TIME_CallbackRegisterMS
                0x00000000       0x5a build/default/production/_ext/101884895/sys_time.o
 .text          0x00000000        0x0 build/default/production/_ext/1171490990/initialization.o
 .data          0x00000000        0x0 build/default/production/_ext/1171490990/initialization.o
 .bss           0x00000000        0x0 build/default/production/_ext/1171490990/initialization.o
 .text          0x00000000        0x0 build/default/production/_ext/1171490990/interrupts.o
 .data          0x00000000        0x0 build/default/production/_ext/1171490990/interrupts.o
 .bss           0x00000000        0x0 build/default/production/_ext/1171490990/interrupts.o
 .text          0x00000000        0x0 build/default/production/_ext/1171490990/exceptions.o
 .data          0x00000000        0x0 build/default/production/_ext/1171490990/exceptions.o
 .bss           0x00000000        0x0 build/default/production/_ext/1171490990/exceptions.o
 .text          0x00000000        0x0 build/default/production/_ext/1171490990/startup_xc32.o
 .data          0x00000000        0x0 build/default/production/_ext/1171490990/startup_xc32.o
 .bss           0x00000000        0x0 build/default/production/_ext/1171490990/startup_xc32.o
 .text          0x00000000        0x0 build/default/production/_ext/1171490990/libc_syscalls.o
 .data          0x00000000        0x0 build/default/production/_ext/1171490990/libc_syscalls.o
 .bss           0x00000000        0x0 build/default/production/_ext/1171490990/libc_syscalls.o
 .text._exit    0x00000000        0xa build/default/production/_ext/1171490990/libc_syscalls.o
 .debug_info    0x00000000      0xeb5 build/default/production/_ext/1171490990/libc_syscalls.o
 .debug_abbrev  0x00000000      0x1a8 build/default/production/_ext/1171490990/libc_syscalls.o
 .debug_loc     0x00000000       0x38 build/default/production/_ext/1171490990/libc_syscalls.o
 .debug_aranges
                0x00000000       0x20 build/default/production/_ext/1171490990/libc_syscalls.o
 .debug_ranges  0x00000000       0x10 build/default/production/_ext/1171490990/libc_syscalls.o
 .debug_line    0x00000000      0x1d0 build/default/production/_ext/1171490990/libc_syscalls.o
 .debug_str     0x00000000        0xe build/default/production/_ext/1171490990/libc_syscalls.o
 .comment       0x00000000       0x3d build/default/production/_ext/1171490990/libc_syscalls.o
 .debug_frame   0x00000000       0x2c build/default/production/_ext/1171490990/libc_syscalls.o
 .ARM.attributes
                0x00000000       0x37 build/default/production/_ext/1171490990/libc_syscalls.o
 .text          0x00000000        0x0 build/default/production/_ext/1171490990/tasks.o
 .data          0x00000000        0x0 build/default/production/_ext/1171490990/tasks.o
 .bss           0x00000000        0x0 build/default/production/_ext/1171490990/tasks.o
 .text          0x00000000        0x0 build/default/production/_ext/1360937237/aws_bootloader.o
 .data          0x00000000        0x0 build/default/production/_ext/1360937237/aws_bootloader.o
 .bss           0x00000000        0x0 build/default/production/_ext/1360937237/aws_bootloader.o
 .rodata.start_address_limit
                0x00000000        0x4 build/default/production/_ext/1360937237/aws_bootloader.o
 .rodata.end_address_limit
                0x00000000        0x4 build/default/production/_ext/1360937237/aws_bootloader.o
 .text.AWS_Bootloader_Initialize
                0x00000000       0x64 build/default/production/_ext/1360937237/aws_bootloader.o
 .rodata.__func__.10021
                0x00000000       0x1c build/default/production/_ext/1360937237/aws_bootloader.o
 .text          0x00000000        0x0 build/default/production/_ext/1360937237/aws_crc.o
 .data          0x00000000        0x0 build/default/production/_ext/1360937237/aws_crc.o
 .bss           0x00000000        0x0 build/default/production/_ext/1360937237/aws_crc.o
 .text          0x00000000        0x0 build/default/production/_ext/1360937237/aws_nvm.o
 .data          0x00000000        0x0 build/default/production/_ext/1360937237/aws_nvm.o
 .bss           0x00000000        0x0 build/default/production/_ext/1360937237/aws_nvm.o
 .text.AWS_FlashRegionLock
                0x00000000       0x58 build/default/production/_ext/1360937237/aws_nvm.o
 .text.AWS_FlashRegionUnlock
                0x00000000       0x58 build/default/production/_ext/1360937237/aws_nvm.o
 .text.AWS_FlashRegionProtect
                0x00000000       0x1c build/default/production/_ext/1360937237/aws_nvm.o
 .text          0x00000000        0x0 build/default/production/_ext/1360937237/main.o
 .data          0x00000000        0x0 build/default/production/_ext/1360937237/main.o
 .bss           0x00000000        0x0 build/default/production/_ext/1360937237/main.o
 .text          0x00000000        0x0 build/default/production/_ext/1360937237/app.o
 .data          0x00000000        0x0 build/default/production/_ext/1360937237/app.o
 .bss           0x00000000        0x0 build/default/production/_ext/1360937237/app.o
 .text          0x00000000        0x0 c:/program files/microchip/xc32/v2.41/bin/bin/../../lib/gcc/pic32c/6.2.1/../../../../pic32c/lib/v7e-m/fpv5/hard\libpic32c.a(data_init.o)
 .data          0x00000000        0x0 c:/program files/microchip/xc32/v2.41/bin/bin/../../lib/gcc/pic32c/6.2.1/../../../../pic32c/lib/v7e-m/fpv5/hard\libpic32c.a(data_init.o)
 .bss           0x00000000        0x0 c:/program files/microchip/xc32/v2.41/bin/bin/../../lib/gcc/pic32c/6.2.1/../../../../pic32c/lib/v7e-m/fpv5/hard\libpic32c.a(data_init.o)
 .text          0x00000000        0x0 c:/program files/microchip/xc32/v2.41/bin/bin/../../lib/gcc/pic32c/6.2.1/../../../../pic32c/lib/v7e-m/fpv5/hard\libc_nano.a(lib_a-init.o)
 .data          0x00000000        0x0 c:/program files/microchip/xc32/v2.41/bin/bin/../../lib/gcc/pic32c/6.2.1/../../../../pic32c/lib/v7e-m/fpv5/hard\libc_nano.a(lib_a-init.o)
 .bss           0x00000000        0x0 c:/program files/microchip/xc32/v2.41/bin/bin/../../lib/gcc/pic32c/6.2.1/../../../../pic32c/lib/v7e-m/fpv5/hard\libc_nano.a(lib_a-init.o)
 .text          0x00000000        0x0 c:/program files/microchip/xc32/v2.41/bin/bin/../../lib/gcc/pic32c/6.2.1/../../../../pic32c/lib/v7e-m/fpv5/hard\libc_nano.a(lib_a-memcmp.o)
 .data          0x00000000        0x0 c:/program files/microchip/xc32/v2.41/bin/bin/../../lib/gcc/pic32c/6.2.1/../../../../pic32c/lib/v7e-m/fpv5/hard\libc_nano.a(lib_a-memcmp.o)
 .bss           0x00000000        0x0 c:/program files/microchip/xc32/v2.41/bin/bin/../../lib/gcc/pic32c/6.2.1/../../../../pic32c/lib/v7e-m/fpv5/hard\libc_nano.a(lib_a-memcmp.o)
 .text          0x00000000        0x0 c:/program files/microchip/xc32/v2.41/bin/bin/../../lib/gcc/pic32c/6.2.1/../../../../pic32c/lib/v7e-m/fpv5/hard\libc_nano.a(lib_a-memcpy-stub.o)
 .data          0x00000000        0x0 c:/program files/microchip/xc32/v2.41/bin/bin/../../lib/gcc/pic32c/6.2.1/../../../../pic32c/lib/v7e-m/fpv5/hard\libc_nano.a(lib_a-memcpy-stub.o)
 .bss           0x00000000        0x0 c:/program files/microchip/xc32/v2.41/bin/bin/../../lib/gcc/pic32c/6.2.1/../../../../pic32c/lib/v7e-m/fpv5/hard\libc_nano.a(lib_a-memcpy-stub.o)
 .text          0x00000000        0x0 c:/program files/microchip/xc32/v2.41/bin/bin/../../lib/gcc/pic32c/6.2.1/../../../../pic32c/lib/v7e-m/fpv5/hard\libc_nano.a(lib_a-memset.o)
 .data          0x00000000        0x0 c:/program files/microchip/xc32/v2.41/bin/bin/../../lib/gcc/pic32c/6.2.1/../../../../pic32c/lib/v7e-m/fpv5/hard\libc_nano.a(lib_a-memset.o)
 .bss           0x00000000        0x0 c:/program files/microchip/xc32/v2.41/bin/bin/../../lib/gcc/pic32c/6.2.1/../../../../pic32c/lib/v7e-m/fpv5/hard\libc_nano.a(lib_a-memset.o)
 .text          0x00000000        0x0 c:/program files/microchip/xc32/v2.41/bin/bin/../../lib/gcc/pic32c/6.2.1/../../../../pic32c/lib/v7e-m/fpv5/hard\libc_nano.a(_lib_a-printf.cdnopsuxX.o)
 .data          0x00000000        0x0 c:/program files/microchip/xc32/v2.41/bin/bin/../../lib/gcc/pic32c/6.2.1/../../../../pic32c/lib/v7e-m/fpv5/hard\libc_nano.a(_lib_a-printf.cdnopsuxX.o)
 .bss           0x00000000        0x0 c:/program files/microchip/xc32/v2.41/bin/bin/../../lib/gcc/pic32c/6.2.1/../../../../pic32c/lib/v7e-m/fpv5/hard\libc_nano.a(_lib_a-printf.cdnopsuxX.o)
 .text          0x00000000        0x0 c:/program files/microchip/xc32/v2.41/bin/bin/../../lib/gcc/pic32c/6.2.1/../../../../pic32c/lib/v7e-m/fpv5/hard\libc_nano.a(lib_a-puts.o)
 .data          0x00000000        0x0 c:/program files/microchip/xc32/v2.41/bin/bin/../../lib/gcc/pic32c/6.2.1/../../../../pic32c/lib/v7e-m/fpv5/hard\libc_nano.a(lib_a-puts.o)
 .bss           0x00000000        0x0 c:/program files/microchip/xc32/v2.41/bin/bin/../../lib/gcc/pic32c/6.2.1/../../../../pic32c/lib/v7e-m/fpv5/hard\libc_nano.a(lib_a-puts.o)
 .text          0x00000000        0x0 c:/program files/microchip/xc32/v2.41/bin/bin/../../lib/gcc/pic32c/6.2.1/../../../../pic32c/lib/v7e-m/fpv5/hard\libc_nano.a(lib_a-strncpy.o)
 .data          0x00000000        0x0 c:/program files/microchip/xc32/v2.41/bin/bin/../../lib/gcc/pic32c/6.2.1/../../../../pic32c/lib/v7e-m/fpv5/hard\libc_nano.a(lib_a-strncpy.o)
 .bss           0x00000000        0x0 c:/program files/microchip/xc32/v2.41/bin/bin/../../lib/gcc/pic32c/6.2.1/../../../../pic32c/lib/v7e-m/fpv5/hard\libc_nano.a(lib_a-strncpy.o)
 .text          0x00000000        0x0 c:/program files/microchip/xc32/v2.41/bin/bin/../../lib/gcc/pic32c/6.2.1/../../../../pic32c/lib/v7e-m/fpv5/hard\libc_nano.a(lib_a-wbuf.o)
 .data          0x00000000        0x0 c:/program files/microchip/xc32/v2.41/bin/bin/../../lib/gcc/pic32c/6.2.1/../../../../pic32c/lib/v7e-m/fpv5/hard\libc_nano.a(lib_a-wbuf.o)
 .bss           0x00000000        0x0 c:/program files/microchip/xc32/v2.41/bin/bin/../../lib/gcc/pic32c/6.2.1/../../../../pic32c/lib/v7e-m/fpv5/hard\libc_nano.a(lib_a-wbuf.o)
 .text.__swbuf  0x00000000       0x10 c:/program files/microchip/xc32/v2.41/bin/bin/../../lib/gcc/pic32c/6.2.1/../../../../pic32c/lib/v7e-m/fpv5/hard\libc_nano.a(lib_a-wbuf.o)
 .text          0x00000000        0x0 c:/program files/microchip/xc32/v2.41/bin/bin/../../lib/gcc/pic32c/6.2.1/../../../../pic32c/lib/v7e-m/fpv5/hard\libc_nano.a(lib_a-wsetup.o)
 .data          0x00000000        0x0 c:/program files/microchip/xc32/v2.41/bin/bin/../../lib/gcc/pic32c/6.2.1/../../../../pic32c/lib/v7e-m/fpv5/hard\libc_nano.a(lib_a-wsetup.o)
 .bss           0x00000000        0x0 c:/program files/microchip/xc32/v2.41/bin/bin/../../lib/gcc/pic32c/6.2.1/../../../../pic32c/lib/v7e-m/fpv5/hard\libc_nano.a(lib_a-wsetup.o)
 .text          0x00000000        0x0 c:/program files/microchip/xc32/v2.41/bin/bin/../../lib/gcc/pic32c/6.2.1/../../../../pic32c/lib/v7e-m/fpv5/hard\libc_nano.a(lib_a-fflush.o)
 .data          0x00000000        0x0 c:/program files/microchip/xc32/v2.41/bin/bin/../../lib/gcc/pic32c/6.2.1/../../../../pic32c/lib/v7e-m/fpv5/hard\libc_nano.a(lib_a-fflush.o)
 .bss           0x00000000        0x0 c:/program files/microchip/xc32/v2.41/bin/bin/../../lib/gcc/pic32c/6.2.1/../../../../pic32c/lib/v7e-m/fpv5/hard\libc_nano.a(lib_a-fflush.o)
 .text.fflush   0x00000000       0x24 c:/program files/microchip/xc32/v2.41/bin/bin/../../lib/gcc/pic32c/6.2.1/../../../../pic32c/lib/v7e-m/fpv5/hard\libc_nano.a(lib_a-fflush.o)
 .text          0x00000000        0x0 c:/program files/microchip/xc32/v2.41/bin/bin/../../lib/gcc/pic32c/6.2.1/../../../../pic32c/lib/v7e-m/fpv5/hard\libc_nano.a(lib_a-findfp.o)
 .data          0x00000000        0x0 c:/program files/microchip/xc32/v2.41/bin/bin/../../lib/gcc/pic32c/6.2.1/../../../../pic32c/lib/v7e-m/fpv5/hard\libc_nano.a(lib_a-findfp.o)
 .bss           0x00000000        0x0 c:/program files/microchip/xc32/v2.41/bin/bin/../../lib/gcc/pic32c/6.2.1/../../../../pic32c/lib/v7e-m/fpv5/hard\libc_nano.a(lib_a-findfp.o)
 .text._cleanup
                0x00000000        0xc c:/program files/microchip/xc32/v2.41/bin/bin/../../lib/gcc/pic32c/6.2.1/../../../../pic32c/lib/v7e-m/fpv5/hard\libc_nano.a(lib_a-findfp.o)
 .text          0x00000000        0x0 c:/program files/microchip/xc32/v2.41/bin/bin/../../lib/gcc/pic32c/6.2.1/../../../../pic32c/lib/v7e-m/fpv5/hard\libc_nano.a(lib_a-fwalk.o)
 .data          0x00000000        0x0 c:/program files/microchip/xc32/v2.41/bin/bin/../../lib/gcc/pic32c/6.2.1/../../../../pic32c/lib/v7e-m/fpv5/hard\libc_nano.a(lib_a-fwalk.o)
 .bss           0x00000000        0x0 c:/program files/microchip/xc32/v2.41/bin/bin/../../lib/gcc/pic32c/6.2.1/../../../../pic32c/lib/v7e-m/fpv5/hard\libc_nano.a(lib_a-fwalk.o)
 .text._fwalk   0x00000000       0x38 c:/program files/microchip/xc32/v2.41/bin/bin/../../lib/gcc/pic32c/6.2.1/../../../../pic32c/lib/v7e-m/fpv5/hard\libc_nano.a(lib_a-fwalk.o)
 .text          0x00000000        0x0 c:/program files/microchip/xc32/v2.41/bin/bin/../../lib/gcc/pic32c/6.2.1/../../../../pic32c/lib/v7e-m/fpv5/hard\libc_nano.a(lib_a-impure.o)
 .data          0x00000000        0x0 c:/program files/microchip/xc32/v2.41/bin/bin/../../lib/gcc/pic32c/6.2.1/../../../../pic32c/lib/v7e-m/fpv5/hard\libc_nano.a(lib_a-impure.o)
 .bss           0x00000000        0x0 c:/program files/microchip/xc32/v2.41/bin/bin/../../lib/gcc/pic32c/6.2.1/../../../../pic32c/lib/v7e-m/fpv5/hard\libc_nano.a(lib_a-impure.o)
 .text          0x00000000        0x0 c:/program files/microchip/xc32/v2.41/bin/bin/../../lib/gcc/pic32c/6.2.1/../../../../pic32c/lib/v7e-m/fpv5/hard\libc_nano.a(lib_a-makebuf.o)
 .data          0x00000000        0x0 c:/program files/microchip/xc32/v2.41/bin/bin/../../lib/gcc/pic32c/6.2.1/../../../../pic32c/lib/v7e-m/fpv5/hard\libc_nano.a(lib_a-makebuf.o)
 .bss           0x00000000        0x0 c:/program files/microchip/xc32/v2.41/bin/bin/../../lib/gcc/pic32c/6.2.1/../../../../pic32c/lib/v7e-m/fpv5/hard\libc_nano.a(lib_a-makebuf.o)
 .text          0x00000000        0x0 c:/program files/microchip/xc32/v2.41/bin/bin/../../lib/gcc/pic32c/6.2.1/../../../../pic32c/lib/v7e-m/fpv5/hard\libc_nano.a(lib_a-nano-freer.o)
 .data          0x00000000        0x0 c:/program files/microchip/xc32/v2.41/bin/bin/../../lib/gcc/pic32c/6.2.1/../../../../pic32c/lib/v7e-m/fpv5/hard\libc_nano.a(lib_a-nano-freer.o)
 .bss           0x00000000        0x0 c:/program files/microchip/xc32/v2.41/bin/bin/../../lib/gcc/pic32c/6.2.1/../../../../pic32c/lib/v7e-m/fpv5/hard\libc_nano.a(lib_a-nano-freer.o)
 .text          0x00000000        0x0 c:/program files/microchip/xc32/v2.41/bin/bin/../../lib/gcc/pic32c/6.2.1/../../../../pic32c/lib/v7e-m/fpv5/hard\libc_nano.a(lib_a-nano-mallocr.o)
 .data          0x00000000        0x0 c:/program files/microchip/xc32/v2.41/bin/bin/../../lib/gcc/pic32c/6.2.1/../../../../pic32c/lib/v7e-m/fpv5/hard\libc_nano.a(lib_a-nano-mallocr.o)
 .bss           0x00000000        0x0 c:/program files/microchip/xc32/v2.41/bin/bin/../../lib/gcc/pic32c/6.2.1/../../../../pic32c/lib/v7e-m/fpv5/hard\libc_nano.a(lib_a-nano-mallocr.o)
 .text          0x00000000        0x0 c:/program files/microchip/xc32/v2.41/bin/bin/../../lib/gcc/pic32c/6.2.1/../../../../pic32c/lib/v7e-m/fpv5/hard\libc_nano.a(_lib_a-nano-vfprintf.cdnopsuxX.o)
 .data          0x00000000        0x0 c:/program files/microchip/xc32/v2.41/bin/bin/../../lib/gcc/pic32c/6.2.1/../../../../pic32c/lib/v7e-m/fpv5/hard\libc_nano.a(_lib_a-nano-vfprintf.cdnopsuxX.o)
 .bss           0x00000000        0x0 c:/program files/microchip/xc32/v2.41/bin/bin/../../lib/gcc/pic32c/6.2.1/../../../../pic32c/lib/v7e-m/fpv5/hard\libc_nano.a(_lib_a-nano-vfprintf.cdnopsuxX.o)
 .text.__printf_float
                0x00000000        0x6 c:/program files/microchip/xc32/v2.41/bin/bin/../../lib/gcc/pic32c/6.2.1/../../../../pic32c/lib/v7e-m/fpv5/hard\libc_nano.a(_lib_a-nano-vfprintf.cdnopsuxX.o)
 .text          0x00000000        0x0 c:/program files/microchip/xc32/v2.41/bin/bin/../../lib/gcc/pic32c/6.2.1/../../../../pic32c/lib/v7e-m/fpv5/hard\libc_nano.a(lib_a-nano-vfprintf_i.o)
 .data          0x00000000        0x0 c:/program files/microchip/xc32/v2.41/bin/bin/../../lib/gcc/pic32c/6.2.1/../../../../pic32c/lib/v7e-m/fpv5/hard\libc_nano.a(lib_a-nano-vfprintf_i.o)
 .bss           0x00000000        0x0 c:/program files/microchip/xc32/v2.41/bin/bin/../../lib/gcc/pic32c/6.2.1/../../../../pic32c/lib/v7e-m/fpv5/hard\libc_nano.a(lib_a-nano-vfprintf_i.o)
 .text._printf_i
                0x00000000      0x240 c:/program files/microchip/xc32/v2.41/bin/bin/../../lib/gcc/pic32c/6.2.1/../../../../pic32c/lib/v7e-m/fpv5/hard\libc_nano.a(lib_a-nano-vfprintf_i.o)
 .rodata        0x00000000       0x22 c:/program files/microchip/xc32/v2.41/bin/bin/../../lib/gcc/pic32c/6.2.1/../../../../pic32c/lib/v7e-m/fpv5/hard\libc_nano.a(lib_a-nano-vfprintf_i.o)
 .text          0x00000000        0x0 c:/program files/microchip/xc32/v2.41/bin/bin/../../lib/gcc/pic32c/6.2.1/../../../../pic32c/lib/v7e-m/fpv5/hard\libc_nano.a(lib_a-sbrkr.o)
 .data          0x00000000        0x0 c:/program files/microchip/xc32/v2.41/bin/bin/../../lib/gcc/pic32c/6.2.1/../../../../pic32c/lib/v7e-m/fpv5/hard\libc_nano.a(lib_a-sbrkr.o)
 .bss           0x00000000        0x0 c:/program files/microchip/xc32/v2.41/bin/bin/../../lib/gcc/pic32c/6.2.1/../../../../pic32c/lib/v7e-m/fpv5/hard\libc_nano.a(lib_a-sbrkr.o)
 .text          0x00000000        0x0 c:/program files/microchip/xc32/v2.41/bin/bin/../../lib/gcc/pic32c/6.2.1/../../../../pic32c/lib/v7e-m/fpv5/hard\libc_nano.a(lib_a-__ssfputs.o)
 .data          0x00000000        0x0 c:/program files/microchip/xc32/v2.41/bin/bin/../../lib/gcc/pic32c/6.2.1/../../../../pic32c/lib/v7e-m/fpv5/hard\libc_nano.a(lib_a-__ssfputs.o)
 .bss           0x00000000        0x0 c:/program files/microchip/xc32/v2.41/bin/bin/../../lib/gcc/pic32c/6.2.1/../../../../pic32c/lib/v7e-m/fpv5/hard\libc_nano.a(lib_a-__ssfputs.o)
 .text          0x00000000        0x0 c:/program files/microchip/xc32/v2.41/bin/bin/../../lib/gcc/pic32c/6.2.1/../../../../pic32c/lib/v7e-m/fpv5/hard\libc_nano.a(lib_a-stdio.o)
 .data          0x00000000        0x0 c:/program files/microchip/xc32/v2.41/bin/bin/../../lib/gcc/pic32c/6.2.1/../../../../pic32c/lib/v7e-m/fpv5/hard\libc_nano.a(lib_a-stdio.o)
 .bss           0x00000000        0x0 c:/program files/microchip/xc32/v2.41/bin/bin/../../lib/gcc/pic32c/6.2.1/../../../../pic32c/lib/v7e-m/fpv5/hard\libc_nano.a(lib_a-stdio.o)
 .text.__seofread
                0x00000000        0x4 c:/program files/microchip/xc32/v2.41/bin/bin/../../lib/gcc/pic32c/6.2.1/../../../../pic32c/lib/v7e-m/fpv5/hard\libc_nano.a(lib_a-stdio.o)
 .text          0x00000000        0x0 c:/program files/microchip/xc32/v2.41/bin/bin/../../lib/gcc/pic32c/6.2.1/../../../../pic32c/lib/v7e-m/fpv5/hard\libc_nano.a(lib_a-writer.o)
 .data          0x00000000        0x0 c:/program files/microchip/xc32/v2.41/bin/bin/../../lib/gcc/pic32c/6.2.1/../../../../pic32c/lib/v7e-m/fpv5/hard\libc_nano.a(lib_a-writer.o)
 .bss           0x00000000        0x0 c:/program files/microchip/xc32/v2.41/bin/bin/../../lib/gcc/pic32c/6.2.1/../../../../pic32c/lib/v7e-m/fpv5/hard\libc_nano.a(lib_a-writer.o)
 .text          0x00000000        0x0 c:/program files/microchip/xc32/v2.41/bin/bin/../../lib/gcc/pic32c/6.2.1/../../../../pic32c/lib/v7e-m/fpv5/hard\libc_nano.a(lib_a-closer.o)
 .data          0x00000000        0x0 c:/program files/microchip/xc32/v2.41/bin/bin/../../lib/gcc/pic32c/6.2.1/../../../../pic32c/lib/v7e-m/fpv5/hard\libc_nano.a(lib_a-closer.o)
 .bss           0x00000000        0x0 c:/program files/microchip/xc32/v2.41/bin/bin/../../lib/gcc/pic32c/6.2.1/../../../../pic32c/lib/v7e-m/fpv5/hard\libc_nano.a(lib_a-closer.o)
 .text          0x00000000        0x0 c:/program files/microchip/xc32/v2.41/bin/bin/../../lib/gcc/pic32c/6.2.1/../../../../pic32c/lib/v7e-m/fpv5/hard\libc_nano.a(lib_a-fputwc.o)
 .data          0x00000000        0x0 c:/program files/microchip/xc32/v2.41/bin/bin/../../lib/gcc/pic32c/6.2.1/../../../../pic32c/lib/v7e-m/fpv5/hard\libc_nano.a(lib_a-fputwc.o)
 .bss           0x00000000        0x0 c:/program files/microchip/xc32/v2.41/bin/bin/../../lib/gcc/pic32c/6.2.1/../../../../pic32c/lib/v7e-m/fpv5/hard\libc_nano.a(lib_a-fputwc.o)
 .text.fputwc   0x00000000       0x50 c:/program files/microchip/xc32/v2.41/bin/bin/../../lib/gcc/pic32c/6.2.1/../../../../pic32c/lib/v7e-m/fpv5/hard\libc_nano.a(lib_a-fputwc.o)
 .text          0x00000000        0x0 c:/program files/microchip/xc32/v2.41/bin/bin/../../lib/gcc/pic32c/6.2.1/../../../../pic32c/lib/v7e-m/fpv5/hard\libc_nano.a(lib_a-fstatr.o)
 .data          0x00000000        0x0 c:/program files/microchip/xc32/v2.41/bin/bin/../../lib/gcc/pic32c/6.2.1/../../../../pic32c/lib/v7e-m/fpv5/hard\libc_nano.a(lib_a-fstatr.o)
 .bss           0x00000000        0x0 c:/program files/microchip/xc32/v2.41/bin/bin/../../lib/gcc/pic32c/6.2.1/../../../../pic32c/lib/v7e-m/fpv5/hard\libc_nano.a(lib_a-fstatr.o)
 .text          0x00000000        0x0 c:/program files/microchip/xc32/v2.41/bin/bin/../../lib/gcc/pic32c/6.2.1/../../../../pic32c/lib/v7e-m/fpv5/hard\libc_nano.a(lib_a-isattyr.o)
 .data          0x00000000        0x0 c:/program files/microchip/xc32/v2.41/bin/bin/../../lib/gcc/pic32c/6.2.1/../../../../pic32c/lib/v7e-m/fpv5/hard\libc_nano.a(lib_a-isattyr.o)
 .bss           0x00000000        0x0 c:/program files/microchip/xc32/v2.41/bin/bin/../../lib/gcc/pic32c/6.2.1/../../../../pic32c/lib/v7e-m/fpv5/hard\libc_nano.a(lib_a-isattyr.o)
 .text          0x00000000        0x0 c:/program files/microchip/xc32/v2.41/bin/bin/../../lib/gcc/pic32c/6.2.1/../../../../pic32c/lib/v7e-m/fpv5/hard\libc_nano.a(lib_a-locale.o)
 .data          0x00000000        0x0 c:/program files/microchip/xc32/v2.41/bin/bin/../../lib/gcc/pic32c/6.2.1/../../../../pic32c/lib/v7e-m/fpv5/hard\libc_nano.a(lib_a-locale.o)
 .bss           0x00000000        0x0 c:/program files/microchip/xc32/v2.41/bin/bin/../../lib/gcc/pic32c/6.2.1/../../../../pic32c/lib/v7e-m/fpv5/hard\libc_nano.a(lib_a-locale.o)
 .text._setlocale_r
                0x00000000       0x38 c:/program files/microchip/xc32/v2.41/bin/bin/../../lib/gcc/pic32c/6.2.1/../../../../pic32c/lib/v7e-m/fpv5/hard\libc_nano.a(lib_a-locale.o)
 .text.__locale_ctype_ptr_l
                0x00000000        0x6 c:/program files/microchip/xc32/v2.41/bin/bin/../../lib/gcc/pic32c/6.2.1/../../../../pic32c/lib/v7e-m/fpv5/hard\libc_nano.a(lib_a-locale.o)
 .text.__locale_ctype_ptr
                0x00000000       0x1c c:/program files/microchip/xc32/v2.41/bin/bin/../../lib/gcc/pic32c/6.2.1/../../../../pic32c/lib/v7e-m/fpv5/hard\libc_nano.a(lib_a-locale.o)
 .text.setlocale
                0x00000000       0x10 c:/program files/microchip/xc32/v2.41/bin/bin/../../lib/gcc/pic32c/6.2.1/../../../../pic32c/lib/v7e-m/fpv5/hard\libc_nano.a(lib_a-locale.o)
 .bss._PathLocale
                0x00000000        0x4 c:/program files/microchip/xc32/v2.41/bin/bin/../../lib/gcc/pic32c/6.2.1/../../../../pic32c/lib/v7e-m/fpv5/hard\libc_nano.a(lib_a-locale.o)
 .text          0x00000000        0x0 c:/program files/microchip/xc32/v2.41/bin/bin/../../lib/gcc/pic32c/6.2.1/../../../../pic32c/lib/v7e-m/fpv5/hard\libc_nano.a(lib_a-lseekr.o)
 .data          0x00000000        0x0 c:/program files/microchip/xc32/v2.41/bin/bin/../../lib/gcc/pic32c/6.2.1/../../../../pic32c/lib/v7e-m/fpv5/hard\libc_nano.a(lib_a-lseekr.o)
 .bss           0x00000000        0x0 c:/program files/microchip/xc32/v2.41/bin/bin/../../lib/gcc/pic32c/6.2.1/../../../../pic32c/lib/v7e-m/fpv5/hard\libc_nano.a(lib_a-lseekr.o)
 .text          0x00000000        0x0 c:/program files/microchip/xc32/v2.41/bin/bin/../../lib/gcc/pic32c/6.2.1/../../../../pic32c/lib/v7e-m/fpv5/hard\libc_nano.a(lib_a-mbtowc_r.o)
 .data          0x00000000        0x0 c:/program files/microchip/xc32/v2.41/bin/bin/../../lib/gcc/pic32c/6.2.1/../../../../pic32c/lib/v7e-m/fpv5/hard\libc_nano.a(lib_a-mbtowc_r.o)
 .bss           0x00000000        0x0 c:/program files/microchip/xc32/v2.41/bin/bin/../../lib/gcc/pic32c/6.2.1/../../../../pic32c/lib/v7e-m/fpv5/hard\libc_nano.a(lib_a-mbtowc_r.o)
 .text._mbtowc_r
                0x00000000       0x24 c:/program files/microchip/xc32/v2.41/bin/bin/../../lib/gcc/pic32c/6.2.1/../../../../pic32c/lib/v7e-m/fpv5/hard\libc_nano.a(lib_a-mbtowc_r.o)
 .data          0x00000000        0x0 c:/program files/microchip/xc32/v2.41/bin/bin/../../lib/gcc/pic32c/6.2.1/../../../../pic32c/lib/v7e-m/fpv5/hard\libc_nano.a(lib_a-memchr.o)
 .bss           0x00000000        0x0 c:/program files/microchip/xc32/v2.41/bin/bin/../../lib/gcc/pic32c/6.2.1/../../../../pic32c/lib/v7e-m/fpv5/hard\libc_nano.a(lib_a-memchr.o)
 .text          0x00000000        0x0 c:/program files/microchip/xc32/v2.41/bin/bin/../../lib/gcc/pic32c/6.2.1/../../../../pic32c/lib/v7e-m/fpv5/hard\libc_nano.a(lib_a-mlock.o)
 .data          0x00000000        0x0 c:/program files/microchip/xc32/v2.41/bin/bin/../../lib/gcc/pic32c/6.2.1/../../../../pic32c/lib/v7e-m/fpv5/hard\libc_nano.a(lib_a-mlock.o)
 .bss           0x00000000        0x0 c:/program files/microchip/xc32/v2.41/bin/bin/../../lib/gcc/pic32c/6.2.1/../../../../pic32c/lib/v7e-m/fpv5/hard\libc_nano.a(lib_a-mlock.o)
 .text          0x00000000        0x0 c:/program files/microchip/xc32/v2.41/bin/bin/../../lib/gcc/pic32c/6.2.1/../../../../pic32c/lib/v7e-m/fpv5/hard\libc_nano.a(lib_a-readr.o)
 .data          0x00000000        0x0 c:/program files/microchip/xc32/v2.41/bin/bin/../../lib/gcc/pic32c/6.2.1/../../../../pic32c/lib/v7e-m/fpv5/hard\libc_nano.a(lib_a-readr.o)
 .bss           0x00000000        0x0 c:/program files/microchip/xc32/v2.41/bin/bin/../../lib/gcc/pic32c/6.2.1/../../../../pic32c/lib/v7e-m/fpv5/hard\libc_nano.a(lib_a-readr.o)
 .text          0x00000000        0x0 c:/program files/microchip/xc32/v2.41/bin/bin/../../lib/gcc/pic32c/6.2.1/../../../../pic32c/lib/v7e-m/fpv5/hard\libc_nano.a(lib_a-reent.o)
 .data          0x00000000        0x0 c:/program files/microchip/xc32/v2.41/bin/bin/../../lib/gcc/pic32c/6.2.1/../../../../pic32c/lib/v7e-m/fpv5/hard\libc_nano.a(lib_a-reent.o)
 .bss           0x00000000        0x0 c:/program files/microchip/xc32/v2.41/bin/bin/../../lib/gcc/pic32c/6.2.1/../../../../pic32c/lib/v7e-m/fpv5/hard\libc_nano.a(lib_a-reent.o)
 .text.cleanup_glue
                0x00000000       0x1a c:/program files/microchip/xc32/v2.41/bin/bin/../../lib/gcc/pic32c/6.2.1/../../../../pic32c/lib/v7e-m/fpv5/hard\libc_nano.a(lib_a-reent.o)
 .text._reclaim_reent
                0x00000000       0xb8 c:/program files/microchip/xc32/v2.41/bin/bin/../../lib/gcc/pic32c/6.2.1/../../../../pic32c/lib/v7e-m/fpv5/hard\libc_nano.a(lib_a-reent.o)
 .text          0x00000000       0x14 c:/program files/microchip/xc32/v2.41/bin/bin/../../lib/gcc/pic32c/6.2.1/../../../../pic32c/lib/v7e-m/fpv5/hard\libc_nano.a(lib_a-strcmp.o)
 .data          0x00000000        0x0 c:/program files/microchip/xc32/v2.41/bin/bin/../../lib/gcc/pic32c/6.2.1/../../../../pic32c/lib/v7e-m/fpv5/hard\libc_nano.a(lib_a-strcmp.o)
 .bss           0x00000000        0x0 c:/program files/microchip/xc32/v2.41/bin/bin/../../lib/gcc/pic32c/6.2.1/../../../../pic32c/lib/v7e-m/fpv5/hard\libc_nano.a(lib_a-strcmp.o)
 .debug_line    0x00000000       0xb1 c:/program files/microchip/xc32/v2.41/bin/bin/../../lib/gcc/pic32c/6.2.1/../../../../pic32c/lib/v7e-m/fpv5/hard\libc_nano.a(lib_a-strcmp.o)
 .debug_info    0x00000000      0x126 c:/program files/microchip/xc32/v2.41/bin/bin/../../lib/gcc/pic32c/6.2.1/../../../../pic32c/lib/v7e-m/fpv5/hard\libc_nano.a(lib_a-strcmp.o)
 .debug_abbrev  0x00000000       0x14 c:/program files/microchip/xc32/v2.41/bin/bin/../../lib/gcc/pic32c/6.2.1/../../../../pic32c/lib/v7e-m/fpv5/hard\libc_nano.a(lib_a-strcmp.o)
 .debug_aranges
                0x00000000       0x20 c:/program files/microchip/xc32/v2.41/bin/bin/../../lib/gcc/pic32c/6.2.1/../../../../pic32c/lib/v7e-m/fpv5/hard\libc_nano.a(lib_a-strcmp.o)
 .debug_frame   0x00000000       0x20 c:/program files/microchip/xc32/v2.41/bin/bin/../../lib/gcc/pic32c/6.2.1/../../../../pic32c/lib/v7e-m/fpv5/hard\libc_nano.a(lib_a-strcmp.o)
 .ARM.attributes
                0x00000000       0x1e c:/program files/microchip/xc32/v2.41/bin/bin/../../lib/gcc/pic32c/6.2.1/../../../../pic32c/lib/v7e-m/fpv5/hard\libc_nano.a(lib_a-strcmp.o)
 .text          0x00000000        0x0 c:/program files/microchip/xc32/v2.41/bin/bin/../../lib/gcc/pic32c/6.2.1/../../../../pic32c/lib/v7e-m/fpv5/hard\libc_nano.a(lib_a-wcrtomb.o)
 .data          0x00000000        0x0 c:/program files/microchip/xc32/v2.41/bin/bin/../../lib/gcc/pic32c/6.2.1/../../../../pic32c/lib/v7e-m/fpv5/hard\libc_nano.a(lib_a-wcrtomb.o)
 .bss           0x00000000        0x0 c:/program files/microchip/xc32/v2.41/bin/bin/../../lib/gcc/pic32c/6.2.1/../../../../pic32c/lib/v7e-m/fpv5/hard\libc_nano.a(lib_a-wcrtomb.o)
 .text.wcrtomb  0x00000000       0x14 c:/program files/microchip/xc32/v2.41/bin/bin/../../lib/gcc/pic32c/6.2.1/../../../../pic32c/lib/v7e-m/fpv5/hard\libc_nano.a(lib_a-wcrtomb.o)
 .text          0x00000000        0x0 c:/program files/microchip/xc32/v2.41/bin/bin/../../lib/gcc/pic32c/6.2.1/../../../../pic32c/lib/v7e-m/fpv5/hard\libc_nano.a(lib_a-wctomb_r.o)
 .data          0x00000000        0x0 c:/program files/microchip/xc32/v2.41/bin/bin/../../lib/gcc/pic32c/6.2.1/../../../../pic32c/lib/v7e-m/fpv5/hard\libc_nano.a(lib_a-wctomb_r.o)
 .bss           0x00000000        0x0 c:/program files/microchip/xc32/v2.41/bin/bin/../../lib/gcc/pic32c/6.2.1/../../../../pic32c/lib/v7e-m/fpv5/hard\libc_nano.a(lib_a-wctomb_r.o)
 .text._wctomb_r
                0x00000000       0x24 c:/program files/microchip/xc32/v2.41/bin/bin/../../lib/gcc/pic32c/6.2.1/../../../../pic32c/lib/v7e-m/fpv5/hard\libc_nano.a(lib_a-wctomb_r.o)
 .text          0x00000000        0x0 c:/program files/microchip/xc32/v2.41/bin/bin/../../lib/gcc/pic32c/6.2.1/../../../../pic32c/lib/v7e-m/fpv5/hard\libc_nano.a(lib_a-ctype_.o)
 .data          0x00000000        0x0 c:/program files/microchip/xc32/v2.41/bin/bin/../../lib/gcc/pic32c/6.2.1/../../../../pic32c/lib/v7e-m/fpv5/hard\libc_nano.a(lib_a-ctype_.o)
 .bss           0x00000000        0x0 c:/program files/microchip/xc32/v2.41/bin/bin/../../lib/gcc/pic32c/6.2.1/../../../../pic32c/lib/v7e-m/fpv5/hard\libc_nano.a(lib_a-ctype_.o)
 .text          0x00000000        0x0 c:/program files/microchip/xc32/v2.41/bin/bin/../../lib/gcc/pic32c/6.2.1/../../../../pic32c/lib/v7e-m/fpv5/hard\libpic32c.a(_close.o)
 .data          0x00000000        0x0 c:/program files/microchip/xc32/v2.41/bin/bin/../../lib/gcc/pic32c/6.2.1/../../../../pic32c/lib/v7e-m/fpv5/hard\libpic32c.a(_close.o)
 .bss           0x00000000        0x0 c:/program files/microchip/xc32/v2.41/bin/bin/../../lib/gcc/pic32c/6.2.1/../../../../pic32c/lib/v7e-m/fpv5/hard\libpic32c.a(_close.o)
 .text          0x00000000        0x0 c:/program files/microchip/xc32/v2.41/bin/bin/../../lib/gcc/pic32c/6.2.1/../../../../pic32c/lib/v7e-m/fpv5/hard\libpic32c.a(_fstat.o)
 .data          0x00000000        0x0 c:/program files/microchip/xc32/v2.41/bin/bin/../../lib/gcc/pic32c/6.2.1/../../../../pic32c/lib/v7e-m/fpv5/hard\libpic32c.a(_fstat.o)
 .bss           0x00000000        0x0 c:/program files/microchip/xc32/v2.41/bin/bin/../../lib/gcc/pic32c/6.2.1/../../../../pic32c/lib/v7e-m/fpv5/hard\libpic32c.a(_fstat.o)
 .text          0x00000000        0x0 c:/program files/microchip/xc32/v2.41/bin/bin/../../lib/gcc/pic32c/6.2.1/../../../../pic32c/lib/v7e-m/fpv5/hard\libpic32c.a(_isatty.o)
 .data          0x00000000        0x0 c:/program files/microchip/xc32/v2.41/bin/bin/../../lib/gcc/pic32c/6.2.1/../../../../pic32c/lib/v7e-m/fpv5/hard\libpic32c.a(_isatty.o)
 .bss           0x00000000        0x0 c:/program files/microchip/xc32/v2.41/bin/bin/../../lib/gcc/pic32c/6.2.1/../../../../pic32c/lib/v7e-m/fpv5/hard\libpic32c.a(_isatty.o)
 .text          0x00000000        0x0 c:/program files/microchip/xc32/v2.41/bin/bin/../../lib/gcc/pic32c/6.2.1/../../../../pic32c/lib/v7e-m/fpv5/hard\libpic32c.a(_lseek.o)
 .data          0x00000000        0x0 c:/program files/microchip/xc32/v2.41/bin/bin/../../lib/gcc/pic32c/6.2.1/../../../../pic32c/lib/v7e-m/fpv5/hard\libpic32c.a(_lseek.o)
 .bss           0x00000000        0x0 c:/program files/microchip/xc32/v2.41/bin/bin/../../lib/gcc/pic32c/6.2.1/../../../../pic32c/lib/v7e-m/fpv5/hard\libpic32c.a(_lseek.o)
 .text          0x00000000        0x0 c:/program files/microchip/xc32/v2.41/bin/bin/../../lib/gcc/pic32c/6.2.1/../../../../pic32c/lib/v7e-m/fpv5/hard\libpic32c.a(_read.o)
 .data          0x00000000        0x0 c:/program files/microchip/xc32/v2.41/bin/bin/../../lib/gcc/pic32c/6.2.1/../../../../pic32c/lib/v7e-m/fpv5/hard\libpic32c.a(_read.o)
 .bss           0x00000000        0x0 c:/program files/microchip/xc32/v2.41/bin/bin/../../lib/gcc/pic32c/6.2.1/../../../../pic32c/lib/v7e-m/fpv5/hard\libpic32c.a(_read.o)
 .text          0x00000000        0x0 c:/program files/microchip/xc32/v2.41/bin/bin/../../lib/gcc/pic32c/6.2.1/../../../../pic32c/lib/v7e-m/fpv5/hard\libpic32c.a(sbrk.o)
 .data          0x00000000        0x0 c:/program files/microchip/xc32/v2.41/bin/bin/../../lib/gcc/pic32c/6.2.1/../../../../pic32c/lib/v7e-m/fpv5/hard\libpic32c.a(sbrk.o)
 .text          0x00000000        0x0 c:/program files/microchip/xc32/v2.41/bin/bin/../../lib/gcc/pic32c/6.2.1/../../../../pic32c/lib/v7e-m/fpv5/hard\libpic32c.a(_write.o)
 .data          0x00000000        0x0 c:/program files/microchip/xc32/v2.41/bin/bin/../../lib/gcc/pic32c/6.2.1/../../../../pic32c/lib/v7e-m/fpv5/hard\libpic32c.a(_write.o)
 .bss           0x00000000        0x0 c:/program files/microchip/xc32/v2.41/bin/bin/../../lib/gcc/pic32c/6.2.1/../../../../pic32c/lib/v7e-m/fpv5/hard\libpic32c.a(_write.o)
 .text          0x00000000        0x0 c:/program files/microchip/xc32/v2.41/bin/bin/../../lib/gcc/pic32c/6.2.1/../../../../pic32c/lib/v7e-m/fpv5/hard\libpic32c.a(close.o)
 .data          0x00000000        0x0 c:/program files/microchip/xc32/v2.41/bin/bin/../../lib/gcc/pic32c/6.2.1/../../../../pic32c/lib/v7e-m/fpv5/hard\libpic32c.a(close.o)
 .bss           0x00000000        0x0 c:/program files/microchip/xc32/v2.41/bin/bin/../../lib/gcc/pic32c/6.2.1/../../../../pic32c/lib/v7e-m/fpv5/hard\libpic32c.a(close.o)
 .gnu.warning.closestub
                0x00000000        0x0 c:/program files/microchip/xc32/v2.41/bin/bin/../../lib/gcc/pic32c/6.2.1/../../../../pic32c/lib/v7e-m/fpv5/hard\libpic32c.a(close.o)
 .text          0x00000000        0x0 c:/program files/microchip/xc32/v2.41/bin/bin/../../lib/gcc/pic32c/6.2.1/../../../../pic32c/lib/v7e-m/fpv5/hard\libpic32c.a(fstat.o)
 .data          0x00000000        0x0 c:/program files/microchip/xc32/v2.41/bin/bin/../../lib/gcc/pic32c/6.2.1/../../../../pic32c/lib/v7e-m/fpv5/hard\libpic32c.a(fstat.o)
 .bss           0x00000000        0x0 c:/program files/microchip/xc32/v2.41/bin/bin/../../lib/gcc/pic32c/6.2.1/../../../../pic32c/lib/v7e-m/fpv5/hard\libpic32c.a(fstat.o)
 .text          0x00000000        0x0 c:/program files/microchip/xc32/v2.41/bin/bin/../../lib/gcc/pic32c/6.2.1/../../../../pic32c/lib/v7e-m/fpv5/hard\libpic32c.a(isatty.o)
 .data          0x00000000        0x0 c:/program files/microchip/xc32/v2.41/bin/bin/../../lib/gcc/pic32c/6.2.1/../../../../pic32c/lib/v7e-m/fpv5/hard\libpic32c.a(isatty.o)
 .bss           0x00000000        0x0 c:/program files/microchip/xc32/v2.41/bin/bin/../../lib/gcc/pic32c/6.2.1/../../../../pic32c/lib/v7e-m/fpv5/hard\libpic32c.a(isatty.o)
 .text          0x00000000        0x0 c:/program files/microchip/xc32/v2.41/bin/bin/../../lib/gcc/pic32c/6.2.1/../../../../pic32c/lib/v7e-m/fpv5/hard\libpic32c.a(lseek.o)
 .data          0x00000000        0x0 c:/program files/microchip/xc32/v2.41/bin/bin/../../lib/gcc/pic32c/6.2.1/../../../../pic32c/lib/v7e-m/fpv5/hard\libpic32c.a(lseek.o)
 .bss           0x00000000        0x0 c:/program files/microchip/xc32/v2.41/bin/bin/../../lib/gcc/pic32c/6.2.1/../../../../pic32c/lib/v7e-m/fpv5/hard\libpic32c.a(lseek.o)
 .text          0x00000000        0x0 c:/program files/microchip/xc32/v2.41/bin/bin/../../lib/gcc/pic32c/6.2.1/../../../../pic32c/lib/v7e-m/fpv5/hard\libpic32c.a(read.o)
 .data          0x00000000        0x0 c:/program files/microchip/xc32/v2.41/bin/bin/../../lib/gcc/pic32c/6.2.1/../../../../pic32c/lib/v7e-m/fpv5/hard\libpic32c.a(read.o)
 .bss           0x00000000        0x0 c:/program files/microchip/xc32/v2.41/bin/bin/../../lib/gcc/pic32c/6.2.1/../../../../pic32c/lib/v7e-m/fpv5/hard\libpic32c.a(read.o)
 .text          0x00000000        0x0 c:/program files/microchip/xc32/v2.41/bin/bin/../../lib/gcc/pic32c/6.2.1/../../../../pic32c/lib/v7e-m/fpv5/hard\libpic32c.a(write.o)
 .data          0x00000000        0x0 c:/program files/microchip/xc32/v2.41/bin/bin/../../lib/gcc/pic32c/6.2.1/../../../../pic32c/lib/v7e-m/fpv5/hard\libpic32c.a(write.o)
 .bss           0x00000000        0x0 c:/program files/microchip/xc32/v2.41/bin/bin/../../lib/gcc/pic32c/6.2.1/../../../../pic32c/lib/v7e-m/fpv5/hard\libpic32c.a(write.o)
 .text          0x00000000        0x0 c:/program files/microchip/xc32/v2.41/bin/bin/../../lib/gcc/pic32c/6.2.1/v7e-m/fpv5/hard/crtend.o
 .data          0x00000000        0x0 c:/program files/microchip/xc32/v2.41/bin/bin/../../lib/gcc/pic32c/6.2.1/v7e-m/fpv5/hard/crtend.o
 .bss           0x00000000        0x0 c:/program files/microchip/xc32/v2.41/bin/bin/../../lib/gcc/pic32c/6.2.1/v7e-m/fpv5/hard/crtend.o
 .eh_frame      0x00000000        0x4 c:/program files/microchip/xc32/v2.41/bin/bin/../../lib/gcc/pic32c/6.2.1/v7e-m/fpv5/hard/crtend.o
 .comment       0x00000000       0x3d c:/program files/microchip/xc32/v2.41/bin/bin/../../lib/gcc/pic32c/6.2.1/v7e-m/fpv5/hard/crtend.o
 .ARM.attributes
                0x00000000       0x32 c:/program files/microchip/xc32/v2.41/bin/bin/../../lib/gcc/pic32c/6.2.1/v7e-m/fpv5/hard/crtend.o
 .text          0x00000000        0x0 c:/program files/microchip/xc32/v2.41/bin/bin/../../lib/gcc/pic32c/6.2.1/v7e-m/fpv5/hard/crtn.o
 .data          0x00000000        0x0 c:/program files/microchip/xc32/v2.41/bin/bin/../../lib/gcc/pic32c/6.2.1/v7e-m/fpv5/hard/crtn.o
 .bss           0x00000000        0x0 c:/program files/microchip/xc32/v2.41/bin/bin/../../lib/gcc/pic32c/6.2.1/v7e-m/fpv5/hard/crtn.o

Memory Configuration

Name             Origin             Length             Attributes
rom              0x00400000         0x00010000         xr
ram              0x20400000         0x00060000         xrw
*default*        0x00000000         0xffffffff

Linker script and memory map

LOAD c:/program files/microchip/xc32/v2.41/bin/bin/../../lib/gcc/pic32c/6.2.1/v7e-m/fpv5/hard/crti.o
LOAD c:/program files/microchip/xc32/v2.41/bin/bin/../../lib/gcc/pic32c/6.2.1/v7e-m/fpv5/hard/crtbegin.o
LOAD build/default/production/_ext/60165520/plib_clk.o
LOAD build/default/production/_ext/60167248/plib_efc.o
LOAD build/default/production/_ext/1865468468/plib_nvic.o
LOAD build/default/production/_ext/60177924/plib_pio.o
LOAD build/default/production/_ext/60180192/plib_rtt.o
LOAD build/default/production/_ext/2001315827/plib_usart1.o
LOAD build/default/production/_ext/163028504/xc32_monitor.o
LOAD build/default/production/_ext/1881668453/sys_int.o
LOAD build/default/production/_ext/101884895/sys_time.o
LOAD build/default/production/_ext/1171490990/initialization.o
LOAD build/default/production/_ext/1171490990/interrupts.o
LOAD build/default/production/_ext/1171490990/exceptions.o
LOAD build/default/production/_ext/1171490990/startup_xc32.o
LOAD build/default/production/_ext/1171490990/libc_syscalls.o
LOAD build/default/production/_ext/1171490990/tasks.o
LOAD build/default/production/_ext/1360937237/aws_bootloader.o
LOAD build/default/production/_ext/1360937237/aws_crc.o
LOAD build/default/production/_ext/1360937237/aws_nvm.o
LOAD build/default/production/_ext/1360937237/main.o
LOAD build/default/production/_ext/1360937237/app.o
                0x00000001                __MPLAB_BUILD = 0x1

.vectors        0x00400000      0x168
                0x00400000                . = ALIGN (0x4)
                0x00400000                _sfixed = .
 *(.vectors .vectors.*)
 .vectors       0x00400000      0x168 build/default/production/_ext/1171490990/interrupts.o
                0x00400000                exception_table

.text           0x00400168       0x20
                0x00400168                . = ALIGN (0x4)
 *(.glue_7t)
 .glue_7t       0x00400168        0x0 linker stubs
 *(.glue_7)
 .glue_7        0x00400168        0x0 linker stubs
 *(.gnu.linkonce.r.*)
 *(.ARM.extab* .gnu.linkonce.armextab.*)
                0x00400168                . = ALIGN (0x4)
 *(.init)
 .init          0x00400168        0x4 c:/program files/microchip/xc32/v2.41/bin/bin/../../lib/gcc/pic32c/6.2.1/v7e-m/fpv5/hard/crti.o
                0x00400168                _init
 .init          0x0040016c        0x8 c:/program files/microchip/xc32/v2.41/bin/bin/../../lib/gcc/pic32c/6.2.1/v7e-m/fpv5/hard/crtn.o
                0x00400174                . = ALIGN (0x4)
                0x00400174                __preinit_array_start = .
 *(.preinit_array)
                0x00400174                __preinit_array_end = .
                0x00400174                . = ALIGN (0x4)
                0x00400174                __init_array_start = .
 *(SORT(.init_array.*))
 *(.init_array)
 .init_array    0x00400174        0x4 c:/program files/microchip/xc32/v2.41/bin/bin/../../lib/gcc/pic32c/6.2.1/v7e-m/fpv5/hard/crtbegin.o
                0x00400178                __init_array_end = .
                0x00400178                . = ALIGN (0x4)
 *crtbegin.o(.ctors)
 *(EXCLUDE_FILE(*crtend.o) .ctors)
 *(SORT(.ctors.*))
 *crtend.o(.ctors)
                0x00400178                . = ALIGN (0x4)
 *(.fini)
 .fini          0x00400178        0x4 c:/program files/microchip/xc32/v2.41/bin/bin/../../lib/gcc/pic32c/6.2.1/v7e-m/fpv5/hard/crti.o
                0x00400178                _fini
 .fini          0x0040017c        0x8 c:/program files/microchip/xc32/v2.41/bin/bin/../../lib/gcc/pic32c/6.2.1/v7e-m/fpv5/hard/crtn.o
                0x00400184                . = ALIGN (0x4)
                0x00400184                __fini_array_start = .
 *(.fini_array)
 .fini_array    0x00400184        0x4 c:/program files/microchip/xc32/v2.41/bin/bin/../../lib/gcc/pic32c/6.2.1/v7e-m/fpv5/hard/crtbegin.o
 *(SORT(.fini_array.*))
                0x00400188                __fini_array_end = .
 *crtbegin.o(.dtors)
 *(EXCLUDE_FILE(*crtend.o) .dtors)
 *(SORT(.dtors.*))
 *crtend.o(.dtors)
                0x00400188                . = ALIGN (0x4)
                0x00400188                _efixed = .
                [!provide]                PROVIDE (__exidx_start, .)

.ARM.exidx
 *(.ARM.exidx* .gnu.linkonce.armexidx.*)
                [!provide]                PROVIDE (__exidx_end, .)
                0x00400188                . = ALIGN (0x4)
                0x00400188                _etext = .

.bss            0x20400000       0x28
                0x20400000                . = ALIGN (0x4)
                0x20400000                __bss_start__ = .
                0x20400000                _sbss = .
                0x20400000                _szero = .
 *(COMMON)
 COMMON         0x20400000        0x8 build/default/production/_ext/60180192/plib_rtt.o
                0x20400000                rtt
 COMMON         0x20400008        0x4 build/default/production/_ext/1171490990/initialization.o
                0x20400008                sysObj
 COMMON         0x2040000c       0x14 build/default/production/_ext/1360937237/aws_bootloader.o
                0x2040000c                aws_launch_dcpt
 COMMON         0x20400020        0x1 build/default/production/_ext/1360937237/app.o
                0x20400020                appData
 *fill*         0x20400021        0x3 
 COMMON         0x20400024        0x4 c:/program files/microchip/xc32/v2.41/bin/bin/../../lib/gcc/pic32c/6.2.1/../../../../pic32c/lib/v7e-m/fpv5/hard\libc_nano.a(lib_a-reent.o)
                0x20400024                errno
                0x20400028                . = ALIGN (0x4)
                0x20400028                __bss_end__ = .
                0x20400028                _ebss = .
                0x20400028                _ezero = .
                0x20400028                . = ALIGN (0x4)
                0x20400028                _end = .
                0x2045ffff                _ram_end_ = ((ORIGIN (ram) + LENGTH (ram)) - 0x1)
                0x00000200                _min_heap_size = 0x200
                0x000007d0                _min_stack_size = 0x7d0
                0x00400000                ROM_ORIGIN = 0x400000
                0x00010000                ROM_LENGTH = 0x10000
START GROUP
LOAD c:/program files/microchip/xc32/v2.41/bin/bin/../../lib/gcc/pic32c/6.2.1/../../../../pic32c/lib/v7e-m/fpv5/hard\libpic32c.a
LOAD c:/program files/microchip/xc32/v2.41/bin/bin/../../lib/gcc/pic32c/6.2.1/v7e-m/fpv5/hard\libgcc.a
LOAD c:/program files/microchip/xc32/v2.41/bin/bin/../../lib/gcc/pic32c/6.2.1/../../../../pic32c/lib/v7e-m/fpv5/hard\libm_nano.a
LOAD c:/program files/microchip/xc32/v2.41/bin/bin/../../lib/gcc/pic32c/6.2.1/../../../../pic32c/lib/v7e-m/fpv5/hard\libc_nano.a
END GROUP
LOAD c:/program files/microchip/xc32/v2.41/bin/bin/../../lib/gcc/pic32c/6.2.1/v7e-m/fpv5/hard/crtend.o
LOAD c:/program files/microchip/xc32/v2.41/bin/bin/../../lib/gcc/pic32c/6.2.1/v7e-m/fpv5/hard/crtn.o
OUTPUT(dist/default/production/bootloader.X.production.elf elf32-littlearm)
LOAD stack
LOAD data_init

.ARM.attributes
                0x00000000       0x2e
 .ARM.attributes
                0x00000000       0x20 c:/program files/microchip/xc32/v2.41/bin/bin/../../lib/gcc/pic32c/6.2.1/v7e-m/fpv5/hard/crti.o
 .ARM.attributes
                0x00000020       0x32 c:/program files/microchip/xc32/v2.41/bin/bin/../../lib/gcc/pic32c/6.2.1/v7e-m/fpv5/hard/crtbegin.o
 .ARM.attributes
                0x00000052       0x37 build/default/production/_ext/60165520/plib_clk.o
 .ARM.attributes
                0x00000089       0x37 build/default/production/_ext/60167248/plib_efc.o
 .ARM.attributes
                0x000000c0       0x37 build/default/production/_ext/1865468468/plib_nvic.o
 .ARM.attributes
                0x000000f7       0x37 build/default/production/_ext/60177924/plib_pio.o
 .ARM.attributes
                0x0000012e       0x37 build/default/production/_ext/60180192/plib_rtt.o
 .ARM.attributes
                0x00000165       0x37 build/default/production/_ext/2001315827/plib_usart1.o
 .ARM.attributes
                0x0000019c       0x37 build/default/production/_ext/163028504/xc32_monitor.o
 .ARM.attributes
                0x000001d3       0x37 build/default/production/_ext/1881668453/sys_int.o
 .ARM.attributes
                0x0000020a       0x37 build/default/production/_ext/101884895/sys_time.o
 .ARM.attributes
                0x00000241       0x37 build/default/production/_ext/1171490990/initialization.o
 .ARM.attributes
                0x00000278       0x37 build/default/production/_ext/1171490990/interrupts.o
 .ARM.attributes
                0x000002af       0x37 build/default/production/_ext/1171490990/exceptions.o
 .ARM.attributes
                0x000002e6       0x37 build/default/production/_ext/1171490990/startup_xc32.o
 .ARM.attributes
                0x0000031d       0x37 build/default/production/_ext/1171490990/tasks.o
 .ARM.attributes
                0x00000354       0x37 build/default/production/_ext/1360937237/aws_bootloader.o
 .ARM.attributes
                0x0000038b       0x37 build/default/production/_ext/1360937237/aws_crc.o
 .ARM.attributes
                0x000003c2       0x37 build/default/production/_ext/1360937237/aws_nvm.o
 .ARM.attributes
                0x000003f9       0x37 build/default/production/_ext/1360937237/main.o
 .ARM.attributes
                0x00000430       0x37 build/default/production/_ext/1360937237/app.o
 .ARM.attributes
                0x00000467       0x32 c:/program files/microchip/xc32/v2.41/bin/bin/../../lib/gcc/pic32c/6.2.1/../../../../pic32c/lib/v7e-m/fpv5/hard\libpic32c.a(data_init.o)
 .ARM.attributes
                0x00000499       0x32 c:/program files/microchip/xc32/v2.41/bin/bin/../../lib/gcc/pic32c/6.2.1/../../../../pic32c/lib/v7e-m/fpv5/hard\libc_nano.a(lib_a-init.o)
 .ARM.attributes
                0x000004cb       0x32 c:/program files/microchip/xc32/v2.41/bin/bin/../../lib/gcc/pic32c/6.2.1/../../../../pic32c/lib/v7e-m/fpv5/hard\libc_nano.a(lib_a-memcmp.o)
 .ARM.attributes
                0x000004fd       0x32 c:/program files/microchip/xc32/v2.41/bin/bin/../../lib/gcc/pic32c/6.2.1/../../../../pic32c/lib/v7e-m/fpv5/hard\libc_nano.a(lib_a-memcpy-stub.o)
 .ARM.attributes
                0x0000052f       0x32 c:/program files/microchip/xc32/v2.41/bin/bin/../../lib/gcc/pic32c/6.2.1/../../../../pic32c/lib/v7e-m/fpv5/hard\libc_nano.a(lib_a-memset.o)
 .ARM.attributes
                0x00000561       0x32 c:/program files/microchip/xc32/v2.41/bin/bin/../../lib/gcc/pic32c/6.2.1/../../../../pic32c/lib/v7e-m/fpv5/hard\libc_nano.a(_lib_a-printf.cdnopsuxX.o)
 .ARM.attributes
                0x00000593       0x32 c:/program files/microchip/xc32/v2.41/bin/bin/../../lib/gcc/pic32c/6.2.1/../../../../pic32c/lib/v7e-m/fpv5/hard\libc_nano.a(lib_a-puts.o)
 .ARM.attributes
                0x000005c5       0x32 c:/program files/microchip/xc32/v2.41/bin/bin/../../lib/gcc/pic32c/6.2.1/../../../../pic32c/lib/v7e-m/fpv5/hard\libc_nano.a(lib_a-strncpy.o)
 .ARM.attributes
                0x000005f7       0x32 c:/program files/microchip/xc32/v2.41/bin/bin/../../lib/gcc/pic32c/6.2.1/../../../../pic32c/lib/v7e-m/fpv5/hard\libc_nano.a(lib_a-wbuf.o)
 .ARM.attributes
                0x00000629       0x32 c:/program files/microchip/xc32/v2.41/bin/bin/../../lib/gcc/pic32c/6.2.1/../../../../pic32c/lib/v7e-m/fpv5/hard\libc_nano.a(lib_a-wsetup.o)
 .ARM.attributes
                0x0000065b       0x32 c:/program files/microchip/xc32/v2.41/bin/bin/../../lib/gcc/pic32c/6.2.1/../../../../pic32c/lib/v7e-m/fpv5/hard\libc_nano.a(lib_a-fflush.o)
 .ARM.attributes
                0x0000068d       0x32 c:/program files/microchip/xc32/v2.41/bin/bin/../../lib/gcc/pic32c/6.2.1/../../../../pic32c/lib/v7e-m/fpv5/hard\libc_nano.a(lib_a-findfp.o)
 .ARM.attributes
                0x000006bf       0x32 c:/program files/microchip/xc32/v2.41/bin/bin/../../lib/gcc/pic32c/6.2.1/../../../../pic32c/lib/v7e-m/fpv5/hard\libc_nano.a(lib_a-fwalk.o)
 .ARM.attributes
                0x000006f1       0x32 c:/program files/microchip/xc32/v2.41/bin/bin/../../lib/gcc/pic32c/6.2.1/../../../../pic32c/lib/v7e-m/fpv5/hard\libc_nano.a(lib_a-impure.o)
 .ARM.attributes
                0x00000723       0x32 c:/program files/microchip/xc32/v2.41/bin/bin/../../lib/gcc/pic32c/6.2.1/../../../../pic32c/lib/v7e-m/fpv5/hard\libc_nano.a(lib_a-makebuf.o)
 .ARM.attributes
                0x00000755       0x32 c:/program files/microchip/xc32/v2.41/bin/bin/../../lib/gcc/pic32c/6.2.1/../../../../pic32c/lib/v7e-m/fpv5/hard\libc_nano.a(lib_a-nano-freer.o)
 .ARM.attributes
                0x00000787       0x32 c:/program files/microchip/xc32/v2.41/bin/bin/../../lib/gcc/pic32c/6.2.1/../../../../pic32c/lib/v7e-m/fpv5/hard\libc_nano.a(lib_a-nano-mallocr.o)
 .ARM.attributes
                0x000007b9       0x32 c:/program files/microchip/xc32/v2.41/bin/bin/../../lib/gcc/pic32c/6.2.1/../../../../pic32c/lib/v7e-m/fpv5/hard\libc_nano.a(_lib_a-nano-vfprintf.cdnopsuxX.o)
 .ARM.attributes
                0x000007eb       0x32 c:/program files/microchip/xc32/v2.41/bin/bin/../../lib/gcc/pic32c/6.2.1/../../../../pic32c/lib/v7e-m/fpv5/hard\libc_nano.a(lib_a-nano-vfprintf_i.o)
 .ARM.attributes
                0x0000081d       0x32 c:/program files/microchip/xc32/v2.41/bin/bin/../../lib/gcc/pic32c/6.2.1/../../../../pic32c/lib/v7e-m/fpv5/hard\libc_nano.a(lib_a-sbrkr.o)
 .ARM.attributes
                0x0000084f       0x32 c:/program files/microchip/xc32/v2.41/bin/bin/../../lib/gcc/pic32c/6.2.1/../../../../pic32c/lib/v7e-m/fpv5/hard\libc_nano.a(lib_a-__ssfputs.o)
 .ARM.attributes
                0x00000881       0x32 c:/program files/microchip/xc32/v2.41/bin/bin/../../lib/gcc/pic32c/6.2.1/../../../../pic32c/lib/v7e-m/fpv5/hard\libc_nano.a(lib_a-stdio.o)
 .ARM.attributes
                0x000008b3       0x32 c:/program files/microchip/xc32/v2.41/bin/bin/../../lib/gcc/pic32c/6.2.1/../../../../pic32c/lib/v7e-m/fpv5/hard\libc_nano.a(lib_a-writer.o)
 .ARM.attributes
                0x000008e5       0x32 c:/program files/microchip/xc32/v2.41/bin/bin/../../lib/gcc/pic32c/6.2.1/../../../../pic32c/lib/v7e-m/fpv5/hard\libc_nano.a(lib_a-closer.o)
 .ARM.attributes
                0x00000917       0x32 c:/program files/microchip/xc32/v2.41/bin/bin/../../lib/gcc/pic32c/6.2.1/../../../../pic32c/lib/v7e-m/fpv5/hard\libc_nano.a(lib_a-fputwc.o)
 .ARM.attributes
                0x00000949       0x32 c:/program files/microchip/xc32/v2.41/bin/bin/../../lib/gcc/pic32c/6.2.1/../../../../pic32c/lib/v7e-m/fpv5/hard\libc_nano.a(lib_a-fstatr.o)
 .ARM.attributes
                0x0000097b       0x32 c:/program files/microchip/xc32/v2.41/bin/bin/../../lib/gcc/pic32c/6.2.1/../../../../pic32c/lib/v7e-m/fpv5/hard\libc_nano.a(lib_a-isattyr.o)
 .ARM.attributes
                0x000009ad       0x32 c:/program files/microchip/xc32/v2.41/bin/bin/../../lib/gcc/pic32c/6.2.1/../../../../pic32c/lib/v7e-m/fpv5/hard\libc_nano.a(lib_a-locale.o)
 .ARM.attributes
                0x000009df       0x32 c:/program files/microchip/xc32/v2.41/bin/bin/../../lib/gcc/pic32c/6.2.1/../../../../pic32c/lib/v7e-m/fpv5/hard\libc_nano.a(lib_a-lseekr.o)
 .ARM.attributes
                0x00000a11       0x32 c:/program files/microchip/xc32/v2.41/bin/bin/../../lib/gcc/pic32c/6.2.1/../../../../pic32c/lib/v7e-m/fpv5/hard\libc_nano.a(lib_a-mbtowc_r.o)
 .ARM.attributes
                0x00000a43       0x1e c:/program files/microchip/xc32/v2.41/bin/bin/../../lib/gcc/pic32c/6.2.1/../../../../pic32c/lib/v7e-m/fpv5/hard\libc_nano.a(lib_a-memchr.o)
 .ARM.attributes
                0x00000a61       0x32 c:/program files/microchip/xc32/v2.41/bin/bin/../../lib/gcc/pic32c/6.2.1/../../../../pic32c/lib/v7e-m/fpv5/hard\libc_nano.a(lib_a-mlock.o)
 .ARM.attributes
                0x00000a93       0x32 c:/program files/microchip/xc32/v2.41/bin/bin/../../lib/gcc/pic32c/6.2.1/../../../../pic32c/lib/v7e-m/fpv5/hard\libc_nano.a(lib_a-readr.o)
 .ARM.attributes
                0x00000ac5       0x32 c:/program files/microchip/xc32/v2.41/bin/bin/../../lib/gcc/pic32c/6.2.1/../../../../pic32c/lib/v7e-m/fpv5/hard\libc_nano.a(lib_a-reent.o)
 .ARM.attributes
                0x00000af7       0x32 c:/program files/microchip/xc32/v2.41/bin/bin/../../lib/gcc/pic32c/6.2.1/../../../../pic32c/lib/v7e-m/fpv5/hard\libc_nano.a(lib_a-wcrtomb.o)
 .ARM.attributes
                0x00000b29       0x32 c:/program files/microchip/xc32/v2.41/bin/bin/../../lib/gcc/pic32c/6.2.1/../../../../pic32c/lib/v7e-m/fpv5/hard\libc_nano.a(lib_a-wctomb_r.o)
 .ARM.attributes
                0x00000b5b       0x32 c:/program files/microchip/xc32/v2.41/bin/bin/../../lib/gcc/pic32c/6.2.1/../../../../pic32c/lib/v7e-m/fpv5/hard\libc_nano.a(lib_a-ctype_.o)
 .ARM.attributes
                0x00000b8d       0x32 c:/program files/microchip/xc32/v2.41/bin/bin/../../lib/gcc/pic32c/6.2.1/../../../../pic32c/lib/v7e-m/fpv5/hard\libpic32c.a(_close.o)
 .ARM.attributes
                0x00000bbf       0x32 c:/program files/microchip/xc32/v2.41/bin/bin/../../lib/gcc/pic32c/6.2.1/../../../../pic32c/lib/v7e-m/fpv5/hard\libpic32c.a(_fstat.o)
 .ARM.attributes
                0x00000bf1       0x32 c:/program files/microchip/xc32/v2.41/bin/bin/../../lib/gcc/pic32c/6.2.1/../../../../pic32c/lib/v7e-m/fpv5/hard\libpic32c.a(_isatty.o)
 .ARM.attributes
                0x00000c23       0x32 c:/program files/microchip/xc32/v2.41/bin/bin/../../lib/gcc/pic32c/6.2.1/../../../../pic32c/lib/v7e-m/fpv5/hard\libpic32c.a(_lseek.o)
 .ARM.attributes
                0x00000c55       0x32 c:/program files/microchip/xc32/v2.41/bin/bin/../../lib/gcc/pic32c/6.2.1/../../../../pic32c/lib/v7e-m/fpv5/hard\libpic32c.a(_read.o)
 .ARM.attributes
                0x00000c87       0x32 c:/program files/microchip/xc32/v2.41/bin/bin/../../lib/gcc/pic32c/6.2.1/../../../../pic32c/lib/v7e-m/fpv5/hard\libpic32c.a(sbrk.o)
 .ARM.attributes
                0x00000cb9       0x32 c:/program files/microchip/xc32/v2.41/bin/bin/../../lib/gcc/pic32c/6.2.1/../../../../pic32c/lib/v7e-m/fpv5/hard\libpic32c.a(_write.o)
 .ARM.attributes
                0x00000ceb       0x32 c:/program files/microchip/xc32/v2.41/bin/bin/../../lib/gcc/pic32c/6.2.1/../../../../pic32c/lib/v7e-m/fpv5/hard\libpic32c.a(close.o)
 .ARM.attributes
                0x00000d1d       0x32 c:/program files/microchip/xc32/v2.41/bin/bin/../../lib/gcc/pic32c/6.2.1/../../../../pic32c/lib/v7e-m/fpv5/hard\libpic32c.a(fstat.o)
 .ARM.attributes
                0x00000d4f       0x32 c:/program files/microchip/xc32/v2.41/bin/bin/../../lib/gcc/pic32c/6.2.1/../../../../pic32c/lib/v7e-m/fpv5/hard\libpic32c.a(isatty.o)
 .ARM.attributes
                0x00000d81       0x32 c:/program files/microchip/xc32/v2.41/bin/bin/../../lib/gcc/pic32c/6.2.1/../../../../pic32c/lib/v7e-m/fpv5/hard\libpic32c.a(lseek.o)
 .ARM.attributes
                0x00000db3       0x32 c:/program files/microchip/xc32/v2.41/bin/bin/../../lib/gcc/pic32c/6.2.1/../../../../pic32c/lib/v7e-m/fpv5/hard\libpic32c.a(read.o)
 .ARM.attributes
                0x00000de5       0x32 c:/program files/microchip/xc32/v2.41/bin/bin/../../lib/gcc/pic32c/6.2.1/../../../../pic32c/lib/v7e-m/fpv5/hard\libpic32c.a(write.o)
 .ARM.attributes
                0x00000e17       0x20 c:/program files/microchip/xc32/v2.41/bin/bin/../../lib/gcc/pic32c/6.2.1/v7e-m/fpv5/hard/crtn.o

.comment        0x00000000       0x3c
 .comment       0x00000000       0x3c c:/program files/microchip/xc32/v2.41/bin/bin/../../lib/gcc/pic32c/6.2.1/v7e-m/fpv5/hard/crtbegin.o
                                 0x3d (size before relaxing)
 .comment       0x0000003c       0x3d build/default/production/_ext/60165520/plib_clk.o
 .comment       0x0000003c       0x3d build/default/production/_ext/60167248/plib_efc.o
 .comment       0x0000003c       0x3d build/default/production/_ext/1865468468/plib_nvic.o
 .comment       0x0000003c       0x3d build/default/production/_ext/60177924/plib_pio.o
 .comment       0x0000003c       0x3d build/default/production/_ext/60180192/plib_rtt.o
 .comment       0x0000003c       0x3d build/default/production/_ext/2001315827/plib_usart1.o
 .comment       0x0000003c       0x3d build/default/production/_ext/163028504/xc32_monitor.o
 .comment       0x0000003c       0x3d build/default/production/_ext/1881668453/sys_int.o
 .comment       0x0000003c       0x3d build/default/production/_ext/101884895/sys_time.o
 .comment       0x0000003c       0x3d build/default/production/_ext/1171490990/initialization.o
 .comment       0x0000003c       0x3d build/default/production/_ext/1171490990/interrupts.o
 .comment       0x0000003c       0x3d build/default/production/_ext/1171490990/exceptions.o
 .comment       0x0000003c       0x3d build/default/production/_ext/1171490990/startup_xc32.o
 .comment       0x0000003c       0x3d build/default/production/_ext/1171490990/tasks.o
 .comment       0x0000003c       0x3d build/default/production/_ext/1360937237/aws_bootloader.o
 .comment       0x0000003c       0x3d build/default/production/_ext/1360937237/aws_crc.o
 .comment       0x0000003c       0x3d build/default/production/_ext/1360937237/aws_nvm.o
 .comment       0x0000003c       0x3d build/default/production/_ext/1360937237/main.o
 .comment       0x0000003c       0x3d build/default/production/_ext/1360937237/app.o
 .comment       0x0000003c       0x3d c:/program files/microchip/xc32/v2.41/bin/bin/../../lib/gcc/pic32c/6.2.1/../../../../pic32c/lib/v7e-m/fpv5/hard\libpic32c.a(data_init.o)
 .comment       0x0000003c       0x3d c:/program files/microchip/xc32/v2.41/bin/bin/../../lib/gcc/pic32c/6.2.1/../../../../pic32c/lib/v7e-m/fpv5/hard\libc_nano.a(lib_a-init.o)
 .comment       0x0000003c       0x3d c:/program files/microchip/xc32/v2.41/bin/bin/../../lib/gcc/pic32c/6.2.1/../../../../pic32c/lib/v7e-m/fpv5/hard\libc_nano.a(lib_a-memcmp.o)
 .comment       0x0000003c       0x3d c:/program files/microchip/xc32/v2.41/bin/bin/../../lib/gcc/pic32c/6.2.1/../../../../pic32c/lib/v7e-m/fpv5/hard\libc_nano.a(lib_a-memcpy-stub.o)
 .comment       0x0000003c       0x3d c:/program files/microchip/xc32/v2.41/bin/bin/../../lib/gcc/pic32c/6.2.1/../../../../pic32c/lib/v7e-m/fpv5/hard\libc_nano.a(lib_a-memset.o)
 .comment       0x0000003c       0x3d c:/program files/microchip/xc32/v2.41/bin/bin/../../lib/gcc/pic32c/6.2.1/../../../../pic32c/lib/v7e-m/fpv5/hard\libc_nano.a(_lib_a-printf.cdnopsuxX.o)
 .comment       0x0000003c       0x3d c:/program files/microchip/xc32/v2.41/bin/bin/../../lib/gcc/pic32c/6.2.1/../../../../pic32c/lib/v7e-m/fpv5/hard\libc_nano.a(lib_a-puts.o)
 .comment       0x0000003c       0x3d c:/program files/microchip/xc32/v2.41/bin/bin/../../lib/gcc/pic32c/6.2.1/../../../../pic32c/lib/v7e-m/fpv5/hard\libc_nano.a(lib_a-strncpy.o)
 .comment       0x0000003c       0x3d c:/program files/microchip/xc32/v2.41/bin/bin/../../lib/gcc/pic32c/6.2.1/../../../../pic32c/lib/v7e-m/fpv5/hard\libc_nano.a(lib_a-wbuf.o)
 .comment       0x0000003c       0x3d c:/program files/microchip/xc32/v2.41/bin/bin/../../lib/gcc/pic32c/6.2.1/../../../../pic32c/lib/v7e-m/fpv5/hard\libc_nano.a(lib_a-wsetup.o)
 .comment       0x0000003c       0x3d c:/program files/microchip/xc32/v2.41/bin/bin/../../lib/gcc/pic32c/6.2.1/../../../../pic32c/lib/v7e-m/fpv5/hard\libc_nano.a(lib_a-fflush.o)
 .comment       0x0000003c       0x3d c:/program files/microchip/xc32/v2.41/bin/bin/../../lib/gcc/pic32c/6.2.1/../../../../pic32c/lib/v7e-m/fpv5/hard\libc_nano.a(lib_a-findfp.o)
 .comment       0x0000003c       0x3d c:/program files/microchip/xc32/v2.41/bin/bin/../../lib/gcc/pic32c/6.2.1/../../../../pic32c/lib/v7e-m/fpv5/hard\libc_nano.a(lib_a-fwalk.o)
 .comment       0x0000003c       0x3d c:/program files/microchip/xc32/v2.41/bin/bin/../../lib/gcc/pic32c/6.2.1/../../../../pic32c/lib/v7e-m/fpv5/hard\libc_nano.a(lib_a-impure.o)
 .comment       0x0000003c       0x3d c:/program files/microchip/xc32/v2.41/bin/bin/../../lib/gcc/pic32c/6.2.1/../../../../pic32c/lib/v7e-m/fpv5/hard\libc_nano.a(lib_a-makebuf.o)
 .comment       0x0000003c       0x3d c:/program files/microchip/xc32/v2.41/bin/bin/../../lib/gcc/pic32c/6.2.1/../../../../pic32c/lib/v7e-m/fpv5/hard\libc_nano.a(lib_a-nano-freer.o)
 .comment       0x0000003c       0x3d c:/program files/microchip/xc32/v2.41/bin/bin/../../lib/gcc/pic32c/6.2.1/../../../../pic32c/lib/v7e-m/fpv5/hard\libc_nano.a(lib_a-nano-mallocr.o)
 .comment       0x0000003c       0x3d c:/program files/microchip/xc32/v2.41/bin/bin/../../lib/gcc/pic32c/6.2.1/../../../../pic32c/lib/v7e-m/fpv5/hard\libc_nano.a(_lib_a-nano-vfprintf.cdnopsuxX.o)
 .comment       0x0000003c       0x3d c:/program files/microchip/xc32/v2.41/bin/bin/../../lib/gcc/pic32c/6.2.1/../../../../pic32c/lib/v7e-m/fpv5/hard\libc_nano.a(lib_a-nano-vfprintf_i.o)
 .comment       0x0000003c       0x3d c:/program files/microchip/xc32/v2.41/bin/bin/../../lib/gcc/pic32c/6.2.1/../../../../pic32c/lib/v7e-m/fpv5/hard\libc_nano.a(lib_a-sbrkr.o)
 .comment       0x0000003c       0x3d c:/program files/microchip/xc32/v2.41/bin/bin/../../lib/gcc/pic32c/6.2.1/../../../../pic32c/lib/v7e-m/fpv5/hard\libc_nano.a(lib_a-__ssfputs.o)
 .comment       0x0000003c       0x3d c:/program files/microchip/xc32/v2.41/bin/bin/../../lib/gcc/pic32c/6.2.1/../../../../pic32c/lib/v7e-m/fpv5/hard\libc_nano.a(lib_a-stdio.o)
 .comment       0x0000003c       0x3d c:/program files/microchip/xc32/v2.41/bin/bin/../../lib/gcc/pic32c/6.2.1/../../../../pic32c/lib/v7e-m/fpv5/hard\libc_nano.a(lib_a-writer.o)
 .comment       0x0000003c       0x3d c:/program files/microchip/xc32/v2.41/bin/bin/../../lib/gcc/pic32c/6.2.1/../../../../pic32c/lib/v7e-m/fpv5/hard\libc_nano.a(lib_a-closer.o)
 .comment       0x0000003c       0x3d c:/program files/microchip/xc32/v2.41/bin/bin/../../lib/gcc/pic32c/6.2.1/../../../../pic32c/lib/v7e-m/fpv5/hard\libc_nano.a(lib_a-fputwc.o)
 .comment       0x0000003c       0x3d c:/program files/microchip/xc32/v2.41/bin/bin/../../lib/gcc/pic32c/6.2.1/../../../../pic32c/lib/v7e-m/fpv5/hard\libc_nano.a(lib_a-fstatr.o)
 .comment       0x0000003c       0x3d c:/program files/microchip/xc32/v2.41/bin/bin/../../lib/gcc/pic32c/6.2.1/../../../../pic32c/lib/v7e-m/fpv5/hard\libc_nano.a(lib_a-isattyr.o)
 .comment       0x0000003c       0x3d c:/program files/microchip/xc32/v2.41/bin/bin/../../lib/gcc/pic32c/6.2.1/../../../../pic32c/lib/v7e-m/fpv5/hard\libc_nano.a(lib_a-locale.o)
 .comment       0x0000003c       0x3d c:/program files/microchip/xc32/v2.41/bin/bin/../../lib/gcc/pic32c/6.2.1/../../../../pic32c/lib/v7e-m/fpv5/hard\libc_nano.a(lib_a-lseekr.o)
 .comment       0x0000003c       0x3d c:/program files/microchip/xc32/v2.41/bin/bin/../../lib/gcc/pic32c/6.2.1/../../../../pic32c/lib/v7e-m/fpv5/hard\libc_nano.a(lib_a-mbtowc_r.o)
 .comment       0x0000003c       0x3d c:/program files/microchip/xc32/v2.41/bin/bin/../../lib/gcc/pic32c/6.2.1/../../../../pic32c/lib/v7e-m/fpv5/hard\libc_nano.a(lib_a-mlock.o)
 .comment       0x0000003c       0x3d c:/program files/microchip/xc32/v2.41/bin/bin/../../lib/gcc/pic32c/6.2.1/../../../../pic32c/lib/v7e-m/fpv5/hard\libc_nano.a(lib_a-readr.o)
 .comment       0x0000003c       0x3d c:/program files/microchip/xc32/v2.41/bin/bin/../../lib/gcc/pic32c/6.2.1/../../../../pic32c/lib/v7e-m/fpv5/hard\libc_nano.a(lib_a-reent.o)
 .comment       0x0000003c       0x3d c:/program files/microchip/xc32/v2.41/bin/bin/../../lib/gcc/pic32c/6.2.1/../../../../pic32c/lib/v7e-m/fpv5/hard\libc_nano.a(lib_a-wcrtomb.o)
 .comment       0x0000003c       0x3d c:/program files/microchip/xc32/v2.41/bin/bin/../../lib/gcc/pic32c/6.2.1/../../../../pic32c/lib/v7e-m/fpv5/hard\libc_nano.a(lib_a-wctomb_r.o)
 .comment       0x0000003c       0x3d c:/program files/microchip/xc32/v2.41/bin/bin/../../lib/gcc/pic32c/6.2.1/../../../../pic32c/lib/v7e-m/fpv5/hard\libc_nano.a(lib_a-ctype_.o)
 .comment       0x0000003c       0x3d c:/program files/microchip/xc32/v2.41/bin/bin/../../lib/gcc/pic32c/6.2.1/../../../../pic32c/lib/v7e-m/fpv5/hard\libpic32c.a(_close.o)
 .comment       0x0000003c       0x3d c:/program files/microchip/xc32/v2.41/bin/bin/../../lib/gcc/pic32c/6.2.1/../../../../pic32c/lib/v7e-m/fpv5/hard\libpic32c.a(_fstat.o)
 .comment       0x0000003c       0x3d c:/program files/microchip/xc32/v2.41/bin/bin/../../lib/gcc/pic32c/6.2.1/../../../../pic32c/lib/v7e-m/fpv5/hard\libpic32c.a(_isatty.o)
 .comment       0x0000003c       0x3d c:/program files/microchip/xc32/v2.41/bin/bin/../../lib/gcc/pic32c/6.2.1/../../../../pic32c/lib/v7e-m/fpv5/hard\libpic32c.a(_lseek.o)
 .comment       0x0000003c       0x3d c:/program files/microchip/xc32/v2.41/bin/bin/../../lib/gcc/pic32c/6.2.1/../../../../pic32c/lib/v7e-m/fpv5/hard\libpic32c.a(_read.o)
 .comment       0x0000003c       0x3d c:/program files/microchip/xc32/v2.41/bin/bin/../../lib/gcc/pic32c/6.2.1/../../../../pic32c/lib/v7e-m/fpv5/hard\libpic32c.a(sbrk.o)
 .comment       0x0000003c       0x3d c:/program files/microchip/xc32/v2.41/bin/bin/../../lib/gcc/pic32c/6.2.1/../../../../pic32c/lib/v7e-m/fpv5/hard\libpic32c.a(_write.o)
 .comment       0x0000003c       0x3d c:/program files/microchip/xc32/v2.41/bin/bin/../../lib/gcc/pic32c/6.2.1/../../../../pic32c/lib/v7e-m/fpv5/hard\libpic32c.a(close.o)
 .comment       0x0000003c       0x3d c:/program files/microchip/xc32/v2.41/bin/bin/../../lib/gcc/pic32c/6.2.1/../../../../pic32c/lib/v7e-m/fpv5/hard\libpic32c.a(fstat.o)
 .comment       0x0000003c       0x3d c:/program files/microchip/xc32/v2.41/bin/bin/../../lib/gcc/pic32c/6.2.1/../../../../pic32c/lib/v7e-m/fpv5/hard\libpic32c.a(isatty.o)
 .comment       0x0000003c       0x3d c:/program files/microchip/xc32/v2.41/bin/bin/../../lib/gcc/pic32c/6.2.1/../../../../pic32c/lib/v7e-m/fpv5/hard\libpic32c.a(lseek.o)
 .comment       0x0000003c       0x3d c:/program files/microchip/xc32/v2.41/bin/bin/../../lib/gcc/pic32c/6.2.1/../../../../pic32c/lib/v7e-m/fpv5/hard\libpic32c.a(read.o)
 .comment       0x0000003c       0x3d c:/program files/microchip/xc32/v2.41/bin/bin/../../lib/gcc/pic32c/6.2.1/../../../../pic32c/lib/v7e-m/fpv5/hard\libpic32c.a(write.o)

.debug_info     0x00000000    0x40ef2
 .debug_info    0x00000000      0x864 build/default/production/_ext/60165520/plib_clk.o
 .debug_info    0x00000864     0x12a2 build/default/production/_ext/60167248/plib_efc.o
 .debug_info    0x00001b06      0xefe build/default/production/_ext/1865468468/plib_nvic.o
 .debug_info    0x00002a04      0xf03 build/default/production/_ext/60177924/plib_pio.o
 .debug_info    0x00003907      0x76c build/default/production/_ext/60180192/plib_rtt.o
 .debug_info    0x00004073      0xcac build/default/production/_ext/2001315827/plib_usart1.o
 .debug_info    0x00004d1f      0xf80 build/default/production/_ext/163028504/xc32_monitor.o
 .debug_info    0x00005c9f      0xcb8 build/default/production/_ext/1881668453/sys_int.o
 .debug_info    0x00006957     0x2ec4 build/default/production/_ext/101884895/sys_time.o
 .debug_info    0x0000981b     0x17c1 build/default/production/_ext/1171490990/initialization.o
 .debug_info    0x0000afdc     0x1946 build/default/production/_ext/1171490990/interrupts.o
 .debug_info    0x0000c922      0xfbe build/default/production/_ext/1171490990/exceptions.o
 .debug_info    0x0000d8e0     0x1691 build/default/production/_ext/1171490990/startup_xc32.o
 .debug_info    0x0000ef71      0xeee build/default/production/_ext/1171490990/tasks.o
 .debug_info    0x0000fe5f     0x224e build/default/production/_ext/1360937237/aws_bootloader.o
 .debug_info    0x000120ad      0xf56 build/default/production/_ext/1360937237/aws_crc.o
 .debug_info    0x00013003     0x150a build/default/production/_ext/1360937237/aws_nvm.o
 .debug_info    0x0001450d      0xedd build/default/production/_ext/1360937237/main.o
 .debug_info    0x000153ea      0xf77 build/default/production/_ext/1360937237/app.o
 .debug_info    0x00016361      0x296 c:/program files/microchip/xc32/v2.41/bin/bin/../../lib/gcc/pic32c/6.2.1/../../../../pic32c/lib/v7e-m/fpv5/hard\libpic32c.a(data_init.o)
 .debug_info    0x000165f7      0x410 c:/program files/microchip/xc32/v2.41/bin/bin/../../lib/gcc/pic32c/6.2.1/../../../../pic32c/lib/v7e-m/fpv5/hard\libc_nano.a(lib_a-init.o)
 .debug_info    0x00016a07      0xe3d c:/program files/microchip/xc32/v2.41/bin/bin/../../lib/gcc/pic32c/6.2.1/../../../../pic32c/lib/v7e-m/fpv5/hard\libc_nano.a(lib_a-memcmp.o)
 .debug_info    0x00017844      0xe5c c:/program files/microchip/xc32/v2.41/bin/bin/../../lib/gcc/pic32c/6.2.1/../../../../pic32c/lib/v7e-m/fpv5/hard\libc_nano.a(lib_a-memcpy-stub.o)
 .debug_info    0x000186a0     0x159f c:/program files/microchip/xc32/v2.41/bin/bin/../../lib/gcc/pic32c/6.2.1/../../../../pic32c/lib/v7e-m/fpv5/hard\libc_nano.a(lib_a-memset.o)
 .debug_info    0x00019c3f      0xef5 c:/program files/microchip/xc32/v2.41/bin/bin/../../lib/gcc/pic32c/6.2.1/../../../../pic32c/lib/v7e-m/fpv5/hard\libc_nano.a(_lib_a-printf.cdnopsuxX.o)
 .debug_info    0x0001ab34     0x12d6 c:/program files/microchip/xc32/v2.41/bin/bin/../../lib/gcc/pic32c/6.2.1/../../../../pic32c/lib/v7e-m/fpv5/hard\libc_nano.a(lib_a-puts.o)
 .debug_info    0x0001be0a      0xe40 c:/program files/microchip/xc32/v2.41/bin/bin/../../lib/gcc/pic32c/6.2.1/../../../../pic32c/lib/v7e-m/fpv5/hard\libc_nano.a(lib_a-strncpy.o)
 .debug_info    0x0001cc4a     0x126a c:/program files/microchip/xc32/v2.41/bin/bin/../../lib/gcc/pic32c/6.2.1/../../../../pic32c/lib/v7e-m/fpv5/hard\libc_nano.a(lib_a-wbuf.o)
 .debug_info    0x0001deb4     0x11e5 c:/program files/microchip/xc32/v2.41/bin/bin/../../lib/gcc/pic32c/6.2.1/../../../../pic32c/lib/v7e-m/fpv5/hard\libc_nano.a(lib_a-wsetup.o)
 .debug_info    0x0001f099     0x134b c:/program files/microchip/xc32/v2.41/bin/bin/../../lib/gcc/pic32c/6.2.1/../../../../pic32c/lib/v7e-m/fpv5/hard\libc_nano.a(lib_a-fflush.o)
 .debug_info    0x000203e4     0x1525 c:/program files/microchip/xc32/v2.41/bin/bin/../../lib/gcc/pic32c/6.2.1/../../../../pic32c/lib/v7e-m/fpv5/hard\libc_nano.a(lib_a-findfp.o)
 .debug_info    0x00021909     0x1254 c:/program files/microchip/xc32/v2.41/bin/bin/../../lib/gcc/pic32c/6.2.1/../../../../pic32c/lib/v7e-m/fpv5/hard\libc_nano.a(lib_a-fwalk.o)
 .debug_info    0x00022b5d      0xde3 c:/program files/microchip/xc32/v2.41/bin/bin/../../lib/gcc/pic32c/6.2.1/../../../../pic32c/lib/v7e-m/fpv5/hard\libc_nano.a(lib_a-impure.o)
 .debug_info    0x00023940     0x159c c:/program files/microchip/xc32/v2.41/bin/bin/../../lib/gcc/pic32c/6.2.1/../../../../pic32c/lib/v7e-m/fpv5/hard\libc_nano.a(lib_a-makebuf.o)
 .debug_info    0x00024edc     0x11b2 c:/program files/microchip/xc32/v2.41/bin/bin/../../lib/gcc/pic32c/6.2.1/../../../../pic32c/lib/v7e-m/fpv5/hard\libc_nano.a(lib_a-nano-freer.o)
 .debug_info    0x0002608e     0x124a c:/program files/microchip/xc32/v2.41/bin/bin/../../lib/gcc/pic32c/6.2.1/../../../../pic32c/lib/v7e-m/fpv5/hard\libc_nano.a(lib_a-nano-mallocr.o)
 .debug_info    0x000272d8     0x1fb4 c:/program files/microchip/xc32/v2.41/bin/bin/../../lib/gcc/pic32c/6.2.1/../../../../pic32c/lib/v7e-m/fpv5/hard\libc_nano.a(_lib_a-nano-vfprintf.cdnopsuxX.o)
 .debug_info    0x0002928c     0x1da9 c:/program files/microchip/xc32/v2.41/bin/bin/../../lib/gcc/pic32c/6.2.1/../../../../pic32c/lib/v7e-m/fpv5/hard\libc_nano.a(lib_a-nano-vfprintf_i.o)
 .debug_info    0x0002b035      0xed3 c:/program files/microchip/xc32/v2.41/bin/bin/../../lib/gcc/pic32c/6.2.1/../../../../pic32c/lib/v7e-m/fpv5/hard\libc_nano.a(lib_a-sbrkr.o)
 .debug_info    0x0002bf08     0x1945 c:/program files/microchip/xc32/v2.41/bin/bin/../../lib/gcc/pic32c/6.2.1/../../../../pic32c/lib/v7e-m/fpv5/hard\libc_nano.a(lib_a-__ssfputs.o)
 .debug_info    0x0002d84d     0x1413 c:/program files/microchip/xc32/v2.41/bin/bin/../../lib/gcc/pic32c/6.2.1/../../../../pic32c/lib/v7e-m/fpv5/hard\libc_nano.a(lib_a-stdio.o)
 .debug_info    0x0002ec60      0xef2 c:/program files/microchip/xc32/v2.41/bin/bin/../../lib/gcc/pic32c/6.2.1/../../../../pic32c/lib/v7e-m/fpv5/hard\libc_nano.a(lib_a-writer.o)
 .debug_info    0x0002fb52      0xea1 c:/program files/microchip/xc32/v2.41/bin/bin/../../lib/gcc/pic32c/6.2.1/../../../../pic32c/lib/v7e-m/fpv5/hard\libc_nano.a(lib_a-closer.o)
 .debug_info    0x000309f3     0x138f c:/program files/microchip/xc32/v2.41/bin/bin/../../lib/gcc/pic32c/6.2.1/../../../../pic32c/lib/v7e-m/fpv5/hard\libc_nano.a(lib_a-fputwc.o)
 .debug_info    0x00031d82     0x119c c:/program files/microchip/xc32/v2.41/bin/bin/../../lib/gcc/pic32c/6.2.1/../../../../pic32c/lib/v7e-m/fpv5/hard\libc_nano.a(lib_a-fstatr.o)
 .debug_info    0x00032f1e      0xeae c:/program files/microchip/xc32/v2.41/bin/bin/../../lib/gcc/pic32c/6.2.1/../../../../pic32c/lib/v7e-m/fpv5/hard\libc_nano.a(lib_a-isattyr.o)
 .debug_info    0x00033dcc     0x188f c:/program files/microchip/xc32/v2.41/bin/bin/../../lib/gcc/pic32c/6.2.1/../../../../pic32c/lib/v7e-m/fpv5/hard\libc_nano.a(lib_a-locale.o)
 .debug_info    0x0003565b      0xed9 c:/program files/microchip/xc32/v2.41/bin/bin/../../lib/gcc/pic32c/6.2.1/../../../../pic32c/lib/v7e-m/fpv5/hard\libc_nano.a(lib_a-lseekr.o)
 .debug_info    0x00036534     0x1773 c:/program files/microchip/xc32/v2.41/bin/bin/../../lib/gcc/pic32c/6.2.1/../../../../pic32c/lib/v7e-m/fpv5/hard\libc_nano.a(lib_a-mbtowc_r.o)
 .debug_info    0x00037ca7      0x11d c:/program files/microchip/xc32/v2.41/bin/bin/../../lib/gcc/pic32c/6.2.1/../../../../pic32c/lib/v7e-m/fpv5/hard\libc_nano.a(lib_a-memchr.o)
 .debug_info    0x00037dc4      0xe20 c:/program files/microchip/xc32/v2.41/bin/bin/../../lib/gcc/pic32c/6.2.1/../../../../pic32c/lib/v7e-m/fpv5/hard\libc_nano.a(lib_a-mlock.o)
 .debug_info    0x00038be4      0xef0 c:/program files/microchip/xc32/v2.41/bin/bin/../../lib/gcc/pic32c/6.2.1/../../../../pic32c/lib/v7e-m/fpv5/hard\libc_nano.a(lib_a-readr.o)
 .debug_info    0x00039ad4      0xfdb c:/program files/microchip/xc32/v2.41/bin/bin/../../lib/gcc/pic32c/6.2.1/../../../../pic32c/lib/v7e-m/fpv5/hard\libc_nano.a(lib_a-reent.o)
 .debug_info    0x0003aaaf     0x174f c:/program files/microchip/xc32/v2.41/bin/bin/../../lib/gcc/pic32c/6.2.1/../../../../pic32c/lib/v7e-m/fpv5/hard\libc_nano.a(lib_a-wcrtomb.o)
 .debug_info    0x0003c1fe     0x173e c:/program files/microchip/xc32/v2.41/bin/bin/../../lib/gcc/pic32c/6.2.1/../../../../pic32c/lib/v7e-m/fpv5/hard\libc_nano.a(lib_a-wctomb_r.o)
 .debug_info    0x0003d93c     0x1570 c:/program files/microchip/xc32/v2.41/bin/bin/../../lib/gcc/pic32c/6.2.1/../../../../pic32c/lib/v7e-m/fpv5/hard\libc_nano.a(lib_a-ctype_.o)
 .debug_info    0x0003eeac      0x27c c:/program files/microchip/xc32/v2.41/bin/bin/../../lib/gcc/pic32c/6.2.1/../../../../pic32c/lib/v7e-m/fpv5/hard\libpic32c.a(_close.o)
 .debug_info    0x0003f128      0x27c c:/program files/microchip/xc32/v2.41/bin/bin/../../lib/gcc/pic32c/6.2.1/../../../../pic32c/lib/v7e-m/fpv5/hard\libpic32c.a(_fstat.o)
 .debug_info    0x0003f3a4      0x27e c:/program files/microchip/xc32/v2.41/bin/bin/../../lib/gcc/pic32c/6.2.1/../../../../pic32c/lib/v7e-m/fpv5/hard\libpic32c.a(_isatty.o)
 .debug_info    0x0003f622      0x27c c:/program files/microchip/xc32/v2.41/bin/bin/../../lib/gcc/pic32c/6.2.1/../../../../pic32c/lib/v7e-m/fpv5/hard\libpic32c.a(_lseek.o)
 .debug_info    0x0003f89e      0x27a c:/program files/microchip/xc32/v2.41/bin/bin/../../lib/gcc/pic32c/6.2.1/../../../../pic32c/lib/v7e-m/fpv5/hard\libpic32c.a(_read.o)
 .debug_info    0x0003fb18      0x27a c:/program files/microchip/xc32/v2.41/bin/bin/../../lib/gcc/pic32c/6.2.1/../../../../pic32c/lib/v7e-m/fpv5/hard\libpic32c.a(sbrk.o)
 .debug_info    0x0003fd92      0x27c c:/program files/microchip/xc32/v2.41/bin/bin/../../lib/gcc/pic32c/6.2.1/../../../../pic32c/lib/v7e-m/fpv5/hard\libpic32c.a(_write.o)
 .debug_info    0x0004000e      0x27b c:/program files/microchip/xc32/v2.41/bin/bin/../../lib/gcc/pic32c/6.2.1/../../../../pic32c/lib/v7e-m/fpv5/hard\libpic32c.a(close.o)
 .debug_info    0x00040289      0x27b c:/program files/microchip/xc32/v2.41/bin/bin/../../lib/gcc/pic32c/6.2.1/../../../../pic32c/lib/v7e-m/fpv5/hard\libpic32c.a(fstat.o)
 .debug_info    0x00040504      0x27d c:/program files/microchip/xc32/v2.41/bin/bin/../../lib/gcc/pic32c/6.2.1/../../../../pic32c/lib/v7e-m/fpv5/hard\libpic32c.a(isatty.o)
 .debug_info    0x00040781      0x27b c:/program files/microchip/xc32/v2.41/bin/bin/../../lib/gcc/pic32c/6.2.1/../../../../pic32c/lib/v7e-m/fpv5/hard\libpic32c.a(lseek.o)
 .debug_info    0x000409fc      0x27a c:/program files/microchip/xc32/v2.41/bin/bin/../../lib/gcc/pic32c/6.2.1/../../../../pic32c/lib/v7e-m/fpv5/hard\libpic32c.a(read.o)
 .debug_info    0x00040c76      0x27c c:/program files/microchip/xc32/v2.41/bin/bin/../../lib/gcc/pic32c/6.2.1/../../../../pic32c/lib/v7e-m/fpv5/hard\libpic32c.a(write.o)

.debug_abbrev   0x00000000     0x68c7
 .debug_abbrev  0x00000000       0xb6 build/default/production/_ext/60165520/plib_clk.o
 .debug_abbrev  0x000000b6      0x280 build/default/production/_ext/60167248/plib_efc.o
 .debug_abbrev  0x00000336      0x140 build/default/production/_ext/1865468468/plib_nvic.o
 .debug_abbrev  0x00000476      0x151 build/default/production/_ext/60177924/plib_pio.o
 .debug_abbrev  0x000005c7      0x14d build/default/production/_ext/60180192/plib_rtt.o
 .debug_abbrev  0x00000714      0x1a5 build/default/production/_ext/2001315827/plib_usart1.o
 .debug_abbrev  0x000008b9      0x1d0 build/default/production/_ext/163028504/xc32_monitor.o
 .debug_abbrev  0x00000a89      0x206 build/default/production/_ext/1881668453/sys_int.o
 .debug_abbrev  0x00000c8f      0x3f8 build/default/production/_ext/101884895/sys_time.o
 .debug_abbrev  0x00001087      0x204 build/default/production/_ext/1171490990/initialization.o
 .debug_abbrev  0x0000128b      0x1a7 build/default/production/_ext/1171490990/interrupts.o
 .debug_abbrev  0x00001432      0x196 build/default/production/_ext/1171490990/exceptions.o
 .debug_abbrev  0x000015c8      0x270 build/default/production/_ext/1171490990/startup_xc32.o
 .debug_abbrev  0x00001838      0x196 build/default/production/_ext/1171490990/tasks.o
 .debug_abbrev  0x000019ce      0x3b0 build/default/production/_ext/1360937237/aws_bootloader.o
 .debug_abbrev  0x00001d7e      0x1e1 build/default/production/_ext/1360937237/aws_crc.o
 .debug_abbrev  0x00001f5f      0x286 build/default/production/_ext/1360937237/aws_nvm.o
 .debug_abbrev  0x000021e5      0x198 build/default/production/_ext/1360937237/main.o
 .debug_abbrev  0x0000237d      0x1ed build/default/production/_ext/1360937237/app.o
 .debug_abbrev  0x0000256a       0x2a c:/program files/microchip/xc32/v2.41/bin/bin/../../lib/gcc/pic32c/6.2.1/../../../../pic32c/lib/v7e-m/fpv5/hard\libpic32c.a(data_init.o)
 .debug_abbrev  0x00002594       0xa3 c:/program files/microchip/xc32/v2.41/bin/bin/../../lib/gcc/pic32c/6.2.1/../../../../pic32c/lib/v7e-m/fpv5/hard\libc_nano.a(lib_a-init.o)
 .debug_abbrev  0x00002637      0x15e c:/program files/microchip/xc32/v2.41/bin/bin/../../lib/gcc/pic32c/6.2.1/../../../../pic32c/lib/v7e-m/fpv5/hard\libc_nano.a(lib_a-memcmp.o)
 .debug_abbrev  0x00002795      0x17c c:/program files/microchip/xc32/v2.41/bin/bin/../../lib/gcc/pic32c/6.2.1/../../../../pic32c/lib/v7e-m/fpv5/hard\libc_nano.a(lib_a-memcpy-stub.o)
 .debug_abbrev  0x00002911      0x170 c:/program files/microchip/xc32/v2.41/bin/bin/../../lib/gcc/pic32c/6.2.1/../../../../pic32c/lib/v7e-m/fpv5/hard\libc_nano.a(lib_a-memset.o)
 .debug_abbrev  0x00002a81      0x196 c:/program files/microchip/xc32/v2.41/bin/bin/../../lib/gcc/pic32c/6.2.1/../../../../pic32c/lib/v7e-m/fpv5/hard\libc_nano.a(_lib_a-printf.cdnopsuxX.o)
 .debug_abbrev  0x00002c17      0x25f c:/program files/microchip/xc32/v2.41/bin/bin/../../lib/gcc/pic32c/6.2.1/../../../../pic32c/lib/v7e-m/fpv5/hard\libc_nano.a(lib_a-puts.o)
 .debug_abbrev  0x00002e76      0x166 c:/program files/microchip/xc32/v2.41/bin/bin/../../lib/gcc/pic32c/6.2.1/../../../../pic32c/lib/v7e-m/fpv5/hard\libc_nano.a(lib_a-strncpy.o)
 .debug_abbrev  0x00002fdc      0x216 c:/program files/microchip/xc32/v2.41/bin/bin/../../lib/gcc/pic32c/6.2.1/../../../../pic32c/lib/v7e-m/fpv5/hard\libc_nano.a(lib_a-wbuf.o)
 .debug_abbrev  0x000031f2      0x1ec c:/program files/microchip/xc32/v2.41/bin/bin/../../lib/gcc/pic32c/6.2.1/../../../../pic32c/lib/v7e-m/fpv5/hard\libc_nano.a(lib_a-wsetup.o)
 .debug_abbrev  0x000033de      0x29e c:/program files/microchip/xc32/v2.41/bin/bin/../../lib/gcc/pic32c/6.2.1/../../../../pic32c/lib/v7e-m/fpv5/hard\libc_nano.a(lib_a-fflush.o)
 .debug_abbrev  0x0000367c      0x2b5 c:/program files/microchip/xc32/v2.41/bin/bin/../../lib/gcc/pic32c/6.2.1/../../../../pic32c/lib/v7e-m/fpv5/hard\libc_nano.a(lib_a-findfp.o)
 .debug_abbrev  0x00003931      0x1ad c:/program files/microchip/xc32/v2.41/bin/bin/../../lib/gcc/pic32c/6.2.1/../../../../pic32c/lib/v7e-m/fpv5/hard\libc_nano.a(lib_a-fwalk.o)
 .debug_abbrev  0x00003ade      0x131 c:/program files/microchip/xc32/v2.41/bin/bin/../../lib/gcc/pic32c/6.2.1/../../../../pic32c/lib/v7e-m/fpv5/hard\libc_nano.a(lib_a-impure.o)
 .debug_abbrev  0x00003c0f      0x268 c:/program files/microchip/xc32/v2.41/bin/bin/../../lib/gcc/pic32c/6.2.1/../../../../pic32c/lib/v7e-m/fpv5/hard\libc_nano.a(lib_a-makebuf.o)
 .debug_abbrev  0x00003e77      0x242 c:/program files/microchip/xc32/v2.41/bin/bin/../../lib/gcc/pic32c/6.2.1/../../../../pic32c/lib/v7e-m/fpv5/hard\libc_nano.a(lib_a-nano-freer.o)
 .debug_abbrev  0x000040b9      0x281 c:/program files/microchip/xc32/v2.41/bin/bin/../../lib/gcc/pic32c/6.2.1/../../../../pic32c/lib/v7e-m/fpv5/hard\libc_nano.a(lib_a-nano-mallocr.o)
 .debug_abbrev  0x0000433a      0x316 c:/program files/microchip/xc32/v2.41/bin/bin/../../lib/gcc/pic32c/6.2.1/../../../../pic32c/lib/v7e-m/fpv5/hard\libc_nano.a(_lib_a-nano-vfprintf.cdnopsuxX.o)
 .debug_abbrev  0x00004650      0x225 c:/program files/microchip/xc32/v2.41/bin/bin/../../lib/gcc/pic32c/6.2.1/../../../../pic32c/lib/v7e-m/fpv5/hard\libc_nano.a(lib_a-nano-vfprintf_i.o)
 .debug_abbrev  0x00004875      0x1a8 c:/program files/microchip/xc32/v2.41/bin/bin/../../lib/gcc/pic32c/6.2.1/../../../../pic32c/lib/v7e-m/fpv5/hard\libc_nano.a(lib_a-sbrkr.o)
 .debug_abbrev  0x00004a1d      0x1f9 c:/program files/microchip/xc32/v2.41/bin/bin/../../lib/gcc/pic32c/6.2.1/../../../../pic32c/lib/v7e-m/fpv5/hard\libc_nano.a(lib_a-__ssfputs.o)
 .debug_abbrev  0x00004c16      0x23f c:/program files/microchip/xc32/v2.41/bin/bin/../../lib/gcc/pic32c/6.2.1/../../../../pic32c/lib/v7e-m/fpv5/hard\libc_nano.a(lib_a-stdio.o)
 .debug_abbrev  0x00004e55      0x198 c:/program files/microchip/xc32/v2.41/bin/bin/../../lib/gcc/pic32c/6.2.1/../../../../pic32c/lib/v7e-m/fpv5/hard\libc_nano.a(lib_a-writer.o)
 .debug_abbrev  0x00004fed      0x193 c:/program files/microchip/xc32/v2.41/bin/bin/../../lib/gcc/pic32c/6.2.1/../../../../pic32c/lib/v7e-m/fpv5/hard\libc_nano.a(lib_a-closer.o)
 .debug_abbrev  0x00005180      0x27f c:/program files/microchip/xc32/v2.41/bin/bin/../../lib/gcc/pic32c/6.2.1/../../../../pic32c/lib/v7e-m/fpv5/hard\libc_nano.a(lib_a-fputwc.o)
 .debug_abbrev  0x000053ff      0x193 c:/program files/microchip/xc32/v2.41/bin/bin/../../lib/gcc/pic32c/6.2.1/../../../../pic32c/lib/v7e-m/fpv5/hard\libc_nano.a(lib_a-fstatr.o)
 .debug_abbrev  0x00005592      0x193 c:/program files/microchip/xc32/v2.41/bin/bin/../../lib/gcc/pic32c/6.2.1/../../../../pic32c/lib/v7e-m/fpv5/hard\libc_nano.a(lib_a-isattyr.o)
 .debug_abbrev  0x00005725      0x256 c:/program files/microchip/xc32/v2.41/bin/bin/../../lib/gcc/pic32c/6.2.1/../../../../pic32c/lib/v7e-m/fpv5/hard\libc_nano.a(lib_a-locale.o)
 .debug_abbrev  0x0000597b      0x193 c:/program files/microchip/xc32/v2.41/bin/bin/../../lib/gcc/pic32c/6.2.1/../../../../pic32c/lib/v7e-m/fpv5/hard\libc_nano.a(lib_a-lseekr.o)
 .debug_abbrev  0x00005b0e      0x1be c:/program files/microchip/xc32/v2.41/bin/bin/../../lib/gcc/pic32c/6.2.1/../../../../pic32c/lib/v7e-m/fpv5/hard\libc_nano.a(lib_a-mbtowc_r.o)
 .debug_abbrev  0x00005ccc       0x14 c:/program files/microchip/xc32/v2.41/bin/bin/../../lib/gcc/pic32c/6.2.1/../../../../pic32c/lib/v7e-m/fpv5/hard\libc_nano.a(lib_a-memchr.o)
 .debug_abbrev  0x00005ce0      0x165 c:/program files/microchip/xc32/v2.41/bin/bin/../../lib/gcc/pic32c/6.2.1/../../../../pic32c/lib/v7e-m/fpv5/hard\libc_nano.a(lib_a-mlock.o)
 .debug_abbrev  0x00005e45      0x193 c:/program files/microchip/xc32/v2.41/bin/bin/../../lib/gcc/pic32c/6.2.1/../../../../pic32c/lib/v7e-m/fpv5/hard\libc_nano.a(lib_a-readr.o)
 .debug_abbrev  0x00005fd8      0x1f8 c:/program files/microchip/xc32/v2.41/bin/bin/../../lib/gcc/pic32c/6.2.1/../../../../pic32c/lib/v7e-m/fpv5/hard\libc_nano.a(lib_a-reent.o)
 .debug_abbrev  0x000061d0      0x1dc c:/program files/microchip/xc32/v2.41/bin/bin/../../lib/gcc/pic32c/6.2.1/../../../../pic32c/lib/v7e-m/fpv5/hard\libc_nano.a(lib_a-wcrtomb.o)
 .debug_abbrev  0x000063ac      0x1da c:/program files/microchip/xc32/v2.41/bin/bin/../../lib/gcc/pic32c/6.2.1/../../../../pic32c/lib/v7e-m/fpv5/hard\libc_nano.a(lib_a-wctomb_r.o)
 .debug_abbrev  0x00006586      0x131 c:/program files/microchip/xc32/v2.41/bin/bin/../../lib/gcc/pic32c/6.2.1/../../../../pic32c/lib/v7e-m/fpv5/hard\libc_nano.a(lib_a-ctype_.o)
 .debug_abbrev  0x000066b7       0x27 c:/program files/microchip/xc32/v2.41/bin/bin/../../lib/gcc/pic32c/6.2.1/../../../../pic32c/lib/v7e-m/fpv5/hard\libpic32c.a(_close.o)
 .debug_abbrev  0x000066de       0x27 c:/program files/microchip/xc32/v2.41/bin/bin/../../lib/gcc/pic32c/6.2.1/../../../../pic32c/lib/v7e-m/fpv5/hard\libpic32c.a(_fstat.o)
 .debug_abbrev  0x00006705       0x27 c:/program files/microchip/xc32/v2.41/bin/bin/../../lib/gcc/pic32c/6.2.1/../../../../pic32c/lib/v7e-m/fpv5/hard\libpic32c.a(_isatty.o)
 .debug_abbrev  0x0000672c       0x27 c:/program files/microchip/xc32/v2.41/bin/bin/../../lib/gcc/pic32c/6.2.1/../../../../pic32c/lib/v7e-m/fpv5/hard\libpic32c.a(_lseek.o)
 .debug_abbrev  0x00006753       0x27 c:/program files/microchip/xc32/v2.41/bin/bin/../../lib/gcc/pic32c/6.2.1/../../../../pic32c/lib/v7e-m/fpv5/hard\libpic32c.a(_read.o)
 .debug_abbrev  0x0000677a       0x2a c:/program files/microchip/xc32/v2.41/bin/bin/../../lib/gcc/pic32c/6.2.1/../../../../pic32c/lib/v7e-m/fpv5/hard\libpic32c.a(sbrk.o)
 .debug_abbrev  0x000067a4       0x27 c:/program files/microchip/xc32/v2.41/bin/bin/../../lib/gcc/pic32c/6.2.1/../../../../pic32c/lib/v7e-m/fpv5/hard\libpic32c.a(_write.o)
 .debug_abbrev  0x000067cb       0x2a c:/program files/microchip/xc32/v2.41/bin/bin/../../lib/gcc/pic32c/6.2.1/../../../../pic32c/lib/v7e-m/fpv5/hard\libpic32c.a(close.o)
 .debug_abbrev  0x000067f5       0x2a c:/program files/microchip/xc32/v2.41/bin/bin/../../lib/gcc/pic32c/6.2.1/../../../../pic32c/lib/v7e-m/fpv5/hard\libpic32c.a(fstat.o)
 .debug_abbrev  0x0000681f       0x2a c:/program files/microchip/xc32/v2.41/bin/bin/../../lib/gcc/pic32c/6.2.1/../../../../pic32c/lib/v7e-m/fpv5/hard\libpic32c.a(isatty.o)
 .debug_abbrev  0x00006849       0x2a c:/program files/microchip/xc32/v2.41/bin/bin/../../lib/gcc/pic32c/6.2.1/../../../../pic32c/lib/v7e-m/fpv5/hard\libpic32c.a(lseek.o)
 .debug_abbrev  0x00006873       0x2a c:/program files/microchip/xc32/v2.41/bin/bin/../../lib/gcc/pic32c/6.2.1/../../../../pic32c/lib/v7e-m/fpv5/hard\libpic32c.a(read.o)
 .debug_abbrev  0x0000689d       0x2a c:/program files/microchip/xc32/v2.41/bin/bin/../../lib/gcc/pic32c/6.2.1/../../../../pic32c/lib/v7e-m/fpv5/hard\libpic32c.a(write.o)

.debug_loc      0x00000000     0x63e5
 .debug_loc     0x00000000       0xb4 build/default/production/_ext/60165520/plib_clk.o
 .debug_loc     0x000000b4      0x2e8 build/default/production/_ext/60167248/plib_efc.o
 .debug_loc     0x0000039c      0x140 build/default/production/_ext/1865468468/plib_nvic.o
 .debug_loc     0x000004dc      0x324 build/default/production/_ext/60177924/plib_pio.o
 .debug_loc     0x00000800      0x3a0 build/default/production/_ext/60180192/plib_rtt.o
 .debug_loc     0x00000ba0      0x364 build/default/production/_ext/2001315827/plib_usart1.o
 .debug_loc     0x00000f04       0xa0 build/default/production/_ext/163028504/xc32_monitor.o
 .debug_loc     0x00000fa4      0x2b0 build/default/production/_ext/1881668453/sys_int.o
 .debug_loc     0x00001254      0xe0c build/default/production/_ext/101884895/sys_time.o
 .debug_loc     0x00002060       0x50 build/default/production/_ext/1171490990/initialization.o
 .debug_loc     0x000020b0      0x108 build/default/production/_ext/1171490990/exceptions.o
 .debug_loc     0x000021b8       0xd8 build/default/production/_ext/1171490990/startup_xc32.o
 .debug_loc     0x00002290       0x2c build/default/production/_ext/1171490990/tasks.o
 .debug_loc     0x000022bc      0x61a build/default/production/_ext/1360937237/aws_bootloader.o
 .debug_loc     0x000028d6      0x128 build/default/production/_ext/1360937237/aws_crc.o
 .debug_loc     0x000029fe      0x330 build/default/production/_ext/1360937237/aws_nvm.o
 .debug_loc     0x00002d2e       0x2c build/default/production/_ext/1360937237/main.o
 .debug_loc     0x00002d5a       0x94 build/default/production/_ext/1360937237/app.o
 .debug_loc     0x00002dee       0x74 c:/program files/microchip/xc32/v2.41/bin/bin/../../lib/gcc/pic32c/6.2.1/../../../../pic32c/lib/v7e-m/fpv5/hard\libc_nano.a(lib_a-init.o)
 .debug_loc     0x00002e62      0x14e c:/program files/microchip/xc32/v2.41/bin/bin/../../lib/gcc/pic32c/6.2.1/../../../../pic32c/lib/v7e-m/fpv5/hard\libc_nano.a(lib_a-memcmp.o)
 .debug_loc     0x00002fb0       0xb2 c:/program files/microchip/xc32/v2.41/bin/bin/../../lib/gcc/pic32c/6.2.1/../../../../pic32c/lib/v7e-m/fpv5/hard\libc_nano.a(lib_a-memcpy-stub.o)
 .debug_loc     0x00003062       0x4c c:/program files/microchip/xc32/v2.41/bin/bin/../../lib/gcc/pic32c/6.2.1/../../../../pic32c/lib/v7e-m/fpv5/hard\libc_nano.a(lib_a-memset.o)
 .debug_loc     0x000030ae       0x50 c:/program files/microchip/xc32/v2.41/bin/bin/../../lib/gcc/pic32c/6.2.1/../../../../pic32c/lib/v7e-m/fpv5/hard\libc_nano.a(_lib_a-printf.cdnopsuxX.o)
 .debug_loc     0x000030fe      0x202 c:/program files/microchip/xc32/v2.41/bin/bin/../../lib/gcc/pic32c/6.2.1/../../../../pic32c/lib/v7e-m/fpv5/hard\libc_nano.a(lib_a-puts.o)
 .debug_loc     0x00003300      0x116 c:/program files/microchip/xc32/v2.41/bin/bin/../../lib/gcc/pic32c/6.2.1/../../../../pic32c/lib/v7e-m/fpv5/hard\libc_nano.a(lib_a-strncpy.o)
 .debug_loc     0x00003416      0x133 c:/program files/microchip/xc32/v2.41/bin/bin/../../lib/gcc/pic32c/6.2.1/../../../../pic32c/lib/v7e-m/fpv5/hard\libc_nano.a(lib_a-wbuf.o)
 .debug_loc     0x00003549       0x7a c:/program files/microchip/xc32/v2.41/bin/bin/../../lib/gcc/pic32c/6.2.1/../../../../pic32c/lib/v7e-m/fpv5/hard\libc_nano.a(lib_a-wsetup.o)
 .debug_loc     0x000035c3      0x2f4 c:/program files/microchip/xc32/v2.41/bin/bin/../../lib/gcc/pic32c/6.2.1/../../../../pic32c/lib/v7e-m/fpv5/hard\libc_nano.a(lib_a-fflush.o)
 .debug_loc     0x000038b7      0x228 c:/program files/microchip/xc32/v2.41/bin/bin/../../lib/gcc/pic32c/6.2.1/../../../../pic32c/lib/v7e-m/fpv5/hard\libc_nano.a(lib_a-findfp.o)
 .debug_loc     0x00003adf      0x139 c:/program files/microchip/xc32/v2.41/bin/bin/../../lib/gcc/pic32c/6.2.1/../../../../pic32c/lib/v7e-m/fpv5/hard\libc_nano.a(lib_a-fwalk.o)
 .debug_loc     0x00003c18      0x254 c:/program files/microchip/xc32/v2.41/bin/bin/../../lib/gcc/pic32c/6.2.1/../../../../pic32c/lib/v7e-m/fpv5/hard\libc_nano.a(lib_a-makebuf.o)
 .debug_loc     0x00003e6c      0x141 c:/program files/microchip/xc32/v2.41/bin/bin/../../lib/gcc/pic32c/6.2.1/../../../../pic32c/lib/v7e-m/fpv5/hard\libc_nano.a(lib_a-nano-freer.o)
 .debug_loc     0x00003fad      0x326 c:/program files/microchip/xc32/v2.41/bin/bin/../../lib/gcc/pic32c/6.2.1/../../../../pic32c/lib/v7e-m/fpv5/hard\libc_nano.a(lib_a-nano-mallocr.o)
 .debug_loc     0x000042d3      0x7ab c:/program files/microchip/xc32/v2.41/bin/bin/../../lib/gcc/pic32c/6.2.1/../../../../pic32c/lib/v7e-m/fpv5/hard\libc_nano.a(_lib_a-nano-vfprintf.cdnopsuxX.o)
 .debug_loc     0x00004a7e      0x5d7 c:/program files/microchip/xc32/v2.41/bin/bin/../../lib/gcc/pic32c/6.2.1/../../../../pic32c/lib/v7e-m/fpv5/hard\libc_nano.a(lib_a-nano-vfprintf_i.o)
 .debug_loc     0x00005055       0x6d c:/program files/microchip/xc32/v2.41/bin/bin/../../lib/gcc/pic32c/6.2.1/../../../../pic32c/lib/v7e-m/fpv5/hard\libc_nano.a(lib_a-sbrkr.o)
 .debug_loc     0x000050c2      0x1f2 c:/program files/microchip/xc32/v2.41/bin/bin/../../lib/gcc/pic32c/6.2.1/../../../../pic32c/lib/v7e-m/fpv5/hard\libc_nano.a(lib_a-__ssfputs.o)
 .debug_loc     0x000052b4      0x2ef c:/program files/microchip/xc32/v2.41/bin/bin/../../lib/gcc/pic32c/6.2.1/../../../../pic32c/lib/v7e-m/fpv5/hard\libc_nano.a(lib_a-stdio.o)
 .debug_loc     0x000055a3       0xc5 c:/program files/microchip/xc32/v2.41/bin/bin/../../lib/gcc/pic32c/6.2.1/../../../../pic32c/lib/v7e-m/fpv5/hard\libc_nano.a(lib_a-writer.o)
 .debug_loc     0x00005668       0x6d c:/program files/microchip/xc32/v2.41/bin/bin/../../lib/gcc/pic32c/6.2.1/../../../../pic32c/lib/v7e-m/fpv5/hard\libc_nano.a(lib_a-closer.o)
 .debug_loc     0x000056d5      0x298 c:/program files/microchip/xc32/v2.41/bin/bin/../../lib/gcc/pic32c/6.2.1/../../../../pic32c/lib/v7e-m/fpv5/hard\libc_nano.a(lib_a-fputwc.o)
 .debug_loc     0x0000596d       0x99 c:/program files/microchip/xc32/v2.41/bin/bin/../../lib/gcc/pic32c/6.2.1/../../../../pic32c/lib/v7e-m/fpv5/hard\libc_nano.a(lib_a-fstatr.o)
 .debug_loc     0x00005a06       0x6d c:/program files/microchip/xc32/v2.41/bin/bin/../../lib/gcc/pic32c/6.2.1/../../../../pic32c/lib/v7e-m/fpv5/hard\libc_nano.a(lib_a-isattyr.o)
 .debug_loc     0x00005a73      0x17b c:/program files/microchip/xc32/v2.41/bin/bin/../../lib/gcc/pic32c/6.2.1/../../../../pic32c/lib/v7e-m/fpv5/hard\libc_nano.a(lib_a-locale.o)
 .debug_loc     0x00005bee       0xc5 c:/program files/microchip/xc32/v2.41/bin/bin/../../lib/gcc/pic32c/6.2.1/../../../../pic32c/lib/v7e-m/fpv5/hard\libc_nano.a(lib_a-lseekr.o)
 .debug_loc     0x00005cb3      0x229 c:/program files/microchip/xc32/v2.41/bin/bin/../../lib/gcc/pic32c/6.2.1/../../../../pic32c/lib/v7e-m/fpv5/hard\libc_nano.a(lib_a-mbtowc_r.o)
 .debug_loc     0x00005edc       0xc5 c:/program files/microchip/xc32/v2.41/bin/bin/../../lib/gcc/pic32c/6.2.1/../../../../pic32c/lib/v7e-m/fpv5/hard\libc_nano.a(lib_a-readr.o)
 .debug_loc     0x00005fa1      0x15e c:/program files/microchip/xc32/v2.41/bin/bin/../../lib/gcc/pic32c/6.2.1/../../../../pic32c/lib/v7e-m/fpv5/hard\libc_nano.a(lib_a-reent.o)
 .debug_loc     0x000060ff      0x1a8 c:/program files/microchip/xc32/v2.41/bin/bin/../../lib/gcc/pic32c/6.2.1/../../../../pic32c/lib/v7e-m/fpv5/hard\libc_nano.a(lib_a-wcrtomb.o)
 .debug_loc     0x000062a7      0x116 c:/program files/microchip/xc32/v2.41/bin/bin/../../lib/gcc/pic32c/6.2.1/../../../../pic32c/lib/v7e-m/fpv5/hard\libc_nano.a(lib_a-wctomb_r.o)
 .debug_loc     0x000063bd       0x14 c:/program files/microchip/xc32/v2.41/bin/bin/../../lib/gcc/pic32c/6.2.1/../../../../pic32c/lib/v7e-m/fpv5/hard\libpic32c.a(read.o)
 .debug_loc     0x000063d1       0x14 c:/program files/microchip/xc32/v2.41/bin/bin/../../lib/gcc/pic32c/6.2.1/../../../../pic32c/lib/v7e-m/fpv5/hard\libpic32c.a(write.o)

.debug_aranges  0x00000000      0xd98
 .debug_aranges
                0x00000000       0x30 build/default/production/_ext/60165520/plib_clk.o
 .debug_aranges
                0x00000030       0x60 build/default/production/_ext/60167248/plib_efc.o
 .debug_aranges
                0x00000090       0x38 build/default/production/_ext/1865468468/plib_nvic.o
 .debug_aranges
                0x000000c8       0x60 build/default/production/_ext/60177924/plib_pio.o
 .debug_aranges
                0x00000128       0x70 build/default/production/_ext/60180192/plib_rtt.o
 .debug_aranges
                0x00000198       0x70 build/default/production/_ext/2001315827/plib_usart1.o
 .debug_aranges
                0x00000208       0x28 build/default/production/_ext/163028504/xc32_monitor.o
 .debug_aranges
                0x00000230       0x58 build/default/production/_ext/1881668453/sys_int.o
 .debug_aranges
                0x00000288      0x170 build/default/production/_ext/101884895/sys_time.o
 .debug_aranges
                0x000003f8       0x20 build/default/production/_ext/1171490990/initialization.o
 .debug_aranges
                0x00000418       0x20 build/default/production/_ext/1171490990/interrupts.o
 .debug_aranges
                0x00000438       0x48 build/default/production/_ext/1171490990/exceptions.o
 .debug_aranges
                0x00000480       0x38 build/default/production/_ext/1171490990/startup_xc32.o
 .debug_aranges
                0x000004b8       0x20 build/default/production/_ext/1171490990/tasks.o
 .debug_aranges
                0x000004d8       0xc0 build/default/production/_ext/1360937237/aws_bootloader.o
 .debug_aranges
                0x00000598       0x38 build/default/production/_ext/1360937237/aws_crc.o
 .debug_aranges
                0x000005d0       0x68 build/default/production/_ext/1360937237/aws_nvm.o
 .debug_aranges
                0x00000638       0x20 build/default/production/_ext/1360937237/main.o
 .debug_aranges
                0x00000658       0x28 build/default/production/_ext/1360937237/app.o
 .debug_aranges
                0x00000680       0x20 c:/program files/microchip/xc32/v2.41/bin/bin/../../lib/gcc/pic32c/6.2.1/../../../../pic32c/lib/v7e-m/fpv5/hard\libpic32c.a(data_init.o)
 .debug_aranges
                0x000006a0       0x20 c:/program files/microchip/xc32/v2.41/bin/bin/../../lib/gcc/pic32c/6.2.1/../../../../pic32c/lib/v7e-m/fpv5/hard\libc_nano.a(lib_a-init.o)
 .debug_aranges
                0x000006c0       0x20 c:/program files/microchip/xc32/v2.41/bin/bin/../../lib/gcc/pic32c/6.2.1/../../../../pic32c/lib/v7e-m/fpv5/hard\libc_nano.a(lib_a-memcmp.o)
 .debug_aranges
                0x000006e0       0x20 c:/program files/microchip/xc32/v2.41/bin/bin/../../lib/gcc/pic32c/6.2.1/../../../../pic32c/lib/v7e-m/fpv5/hard\libc_nano.a(lib_a-memcpy-stub.o)
 .debug_aranges
                0x00000700       0x20 c:/program files/microchip/xc32/v2.41/bin/bin/../../lib/gcc/pic32c/6.2.1/../../../../pic32c/lib/v7e-m/fpv5/hard\libc_nano.a(lib_a-memset.o)
 .debug_aranges
                0x00000720       0x20 c:/program files/microchip/xc32/v2.41/bin/bin/../../lib/gcc/pic32c/6.2.1/../../../../pic32c/lib/v7e-m/fpv5/hard\libc_nano.a(_lib_a-printf.cdnopsuxX.o)
 .debug_aranges
                0x00000740       0x28 c:/program files/microchip/xc32/v2.41/bin/bin/../../lib/gcc/pic32c/6.2.1/../../../../pic32c/lib/v7e-m/fpv5/hard\libc_nano.a(lib_a-puts.o)
 .debug_aranges
                0x00000768       0x20 c:/program files/microchip/xc32/v2.41/bin/bin/../../lib/gcc/pic32c/6.2.1/../../../../pic32c/lib/v7e-m/fpv5/hard\libc_nano.a(lib_a-strncpy.o)
 .debug_aranges
                0x00000788       0x28 c:/program files/microchip/xc32/v2.41/bin/bin/../../lib/gcc/pic32c/6.2.1/../../../../pic32c/lib/v7e-m/fpv5/hard\libc_nano.a(lib_a-wbuf.o)
 .debug_aranges
                0x000007b0       0x20 c:/program files/microchip/xc32/v2.41/bin/bin/../../lib/gcc/pic32c/6.2.1/../../../../pic32c/lib/v7e-m/fpv5/hard\libc_nano.a(lib_a-wsetup.o)
 .debug_aranges
                0x000007d0       0x30 c:/program files/microchip/xc32/v2.41/bin/bin/../../lib/gcc/pic32c/6.2.1/../../../../pic32c/lib/v7e-m/fpv5/hard\libc_nano.a(lib_a-fflush.o)
 .debug_aranges
                0x00000800       0x48 c:/program files/microchip/xc32/v2.41/bin/bin/../../lib/gcc/pic32c/6.2.1/../../../../pic32c/lib/v7e-m/fpv5/hard\libc_nano.a(lib_a-findfp.o)
 .debug_aranges
                0x00000848       0x28 c:/program files/microchip/xc32/v2.41/bin/bin/../../lib/gcc/pic32c/6.2.1/../../../../pic32c/lib/v7e-m/fpv5/hard\libc_nano.a(lib_a-fwalk.o)
 .debug_aranges
                0x00000870       0x18 c:/program files/microchip/xc32/v2.41/bin/bin/../../lib/gcc/pic32c/6.2.1/../../../../pic32c/lib/v7e-m/fpv5/hard\libc_nano.a(lib_a-impure.o)
 .debug_aranges
                0x00000888       0x28 c:/program files/microchip/xc32/v2.41/bin/bin/../../lib/gcc/pic32c/6.2.1/../../../../pic32c/lib/v7e-m/fpv5/hard\libc_nano.a(lib_a-makebuf.o)
 .debug_aranges
                0x000008b0       0x20 c:/program files/microchip/xc32/v2.41/bin/bin/../../lib/gcc/pic32c/6.2.1/../../../../pic32c/lib/v7e-m/fpv5/hard\libc_nano.a(lib_a-nano-freer.o)
 .debug_aranges
                0x000008d0       0x20 c:/program files/microchip/xc32/v2.41/bin/bin/../../lib/gcc/pic32c/6.2.1/../../../../pic32c/lib/v7e-m/fpv5/hard\libc_nano.a(lib_a-nano-mallocr.o)
 .debug_aranges
                0x000008f0       0x30 c:/program files/microchip/xc32/v2.41/bin/bin/../../lib/gcc/pic32c/6.2.1/../../../../pic32c/lib/v7e-m/fpv5/hard\libc_nano.a(_lib_a-nano-vfprintf.cdnopsuxX.o)
 .debug_aranges
                0x00000920       0x28 c:/program files/microchip/xc32/v2.41/bin/bin/../../lib/gcc/pic32c/6.2.1/../../../../pic32c/lib/v7e-m/fpv5/hard\libc_nano.a(lib_a-nano-vfprintf_i.o)
 .debug_aranges
                0x00000948       0x20 c:/program files/microchip/xc32/v2.41/bin/bin/../../lib/gcc/pic32c/6.2.1/../../../../pic32c/lib/v7e-m/fpv5/hard\libc_nano.a(lib_a-sbrkr.o)
 .debug_aranges
                0x00000968       0x28 c:/program files/microchip/xc32/v2.41/bin/bin/../../lib/gcc/pic32c/6.2.1/../../../../pic32c/lib/v7e-m/fpv5/hard\libc_nano.a(lib_a-__ssfputs.o)
 .debug_aranges
                0x00000990       0x40 c:/program files/microchip/xc32/v2.41/bin/bin/../../lib/gcc/pic32c/6.2.1/../../../../pic32c/lib/v7e-m/fpv5/hard\libc_nano.a(lib_a-stdio.o)
 .debug_aranges
                0x000009d0       0x20 c:/program files/microchip/xc32/v2.41/bin/bin/../../lib/gcc/pic32c/6.2.1/../../../../pic32c/lib/v7e-m/fpv5/hard\libc_nano.a(lib_a-writer.o)
 .debug_aranges
                0x000009f0       0x20 c:/program files/microchip/xc32/v2.41/bin/bin/../../lib/gcc/pic32c/6.2.1/../../../../pic32c/lib/v7e-m/fpv5/hard\libc_nano.a(lib_a-closer.o)
 .debug_aranges
                0x00000a10       0x30 c:/program files/microchip/xc32/v2.41/bin/bin/../../lib/gcc/pic32c/6.2.1/../../../../pic32c/lib/v7e-m/fpv5/hard\libc_nano.a(lib_a-fputwc.o)
 .debug_aranges
                0x00000a40       0x20 c:/program files/microchip/xc32/v2.41/bin/bin/../../lib/gcc/pic32c/6.2.1/../../../../pic32c/lib/v7e-m/fpv5/hard\libc_nano.a(lib_a-fstatr.o)
 .debug_aranges
                0x00000a60       0x20 c:/program files/microchip/xc32/v2.41/bin/bin/../../lib/gcc/pic32c/6.2.1/../../../../pic32c/lib/v7e-m/fpv5/hard\libc_nano.a(lib_a-isattyr.o)
 .debug_aranges
                0x00000a80       0x40 c:/program files/microchip/xc32/v2.41/bin/bin/../../lib/gcc/pic32c/6.2.1/../../../../pic32c/lib/v7e-m/fpv5/hard\libc_nano.a(lib_a-locale.o)
 .debug_aranges
                0x00000ac0       0x20 c:/program files/microchip/xc32/v2.41/bin/bin/../../lib/gcc/pic32c/6.2.1/../../../../pic32c/lib/v7e-m/fpv5/hard\libc_nano.a(lib_a-lseekr.o)
 .debug_aranges
                0x00000ae0       0x28 c:/program files/microchip/xc32/v2.41/bin/bin/../../lib/gcc/pic32c/6.2.1/../../../../pic32c/lib/v7e-m/fpv5/hard\libc_nano.a(lib_a-mbtowc_r.o)
 .debug_aranges
                0x00000b08       0x20 c:/program files/microchip/xc32/v2.41/bin/bin/../../lib/gcc/pic32c/6.2.1/../../../../pic32c/lib/v7e-m/fpv5/hard\libc_nano.a(lib_a-memchr.o)
 .debug_aranges
                0x00000b28       0x20 c:/program files/microchip/xc32/v2.41/bin/bin/../../lib/gcc/pic32c/6.2.1/../../../../pic32c/lib/v7e-m/fpv5/hard\libc_nano.a(lib_a-mlock.o)
 .debug_aranges
                0x00000b48       0x20 c:/program files/microchip/xc32/v2.41/bin/bin/../../lib/gcc/pic32c/6.2.1/../../../../pic32c/lib/v7e-m/fpv5/hard\libc_nano.a(lib_a-readr.o)
 .debug_aranges
                0x00000b68       0x28 c:/program files/microchip/xc32/v2.41/bin/bin/../../lib/gcc/pic32c/6.2.1/../../../../pic32c/lib/v7e-m/fpv5/hard\libc_nano.a(lib_a-reent.o)
 .debug_aranges
                0x00000b90       0x28 c:/program files/microchip/xc32/v2.41/bin/bin/../../lib/gcc/pic32c/6.2.1/../../../../pic32c/lib/v7e-m/fpv5/hard\libc_nano.a(lib_a-wcrtomb.o)
 .debug_aranges
                0x00000bb8       0x28 c:/program files/microchip/xc32/v2.41/bin/bin/../../lib/gcc/pic32c/6.2.1/../../../../pic32c/lib/v7e-m/fpv5/hard\libc_nano.a(lib_a-wctomb_r.o)
 .debug_aranges
                0x00000be0       0x18 c:/program files/microchip/xc32/v2.41/bin/bin/../../lib/gcc/pic32c/6.2.1/../../../../pic32c/lib/v7e-m/fpv5/hard\libc_nano.a(lib_a-ctype_.o)
 .debug_aranges
                0x00000bf8       0x20 c:/program files/microchip/xc32/v2.41/bin/bin/../../lib/gcc/pic32c/6.2.1/../../../../pic32c/lib/v7e-m/fpv5/hard\libpic32c.a(_close.o)
 .debug_aranges
                0x00000c18       0x20 c:/program files/microchip/xc32/v2.41/bin/bin/../../lib/gcc/pic32c/6.2.1/../../../../pic32c/lib/v7e-m/fpv5/hard\libpic32c.a(_fstat.o)
 .debug_aranges
                0x00000c38       0x20 c:/program files/microchip/xc32/v2.41/bin/bin/../../lib/gcc/pic32c/6.2.1/../../../../pic32c/lib/v7e-m/fpv5/hard\libpic32c.a(_isatty.o)
 .debug_aranges
                0x00000c58       0x20 c:/program files/microchip/xc32/v2.41/bin/bin/../../lib/gcc/pic32c/6.2.1/../../../../pic32c/lib/v7e-m/fpv5/hard\libpic32c.a(_lseek.o)
 .debug_aranges
                0x00000c78       0x20 c:/program files/microchip/xc32/v2.41/bin/bin/../../lib/gcc/pic32c/6.2.1/../../../../pic32c/lib/v7e-m/fpv5/hard\libpic32c.a(_read.o)
 .debug_aranges
                0x00000c98       0x20 c:/program files/microchip/xc32/v2.41/bin/bin/../../lib/gcc/pic32c/6.2.1/../../../../pic32c/lib/v7e-m/fpv5/hard\libpic32c.a(sbrk.o)
 .debug_aranges
                0x00000cb8       0x20 c:/program files/microchip/xc32/v2.41/bin/bin/../../lib/gcc/pic32c/6.2.1/../../../../pic32c/lib/v7e-m/fpv5/hard\libpic32c.a(_write.o)
 .debug_aranges
                0x00000cd8       0x20 c:/program files/microchip/xc32/v2.41/bin/bin/../../lib/gcc/pic32c/6.2.1/../../../../pic32c/lib/v7e-m/fpv5/hard\libpic32c.a(close.o)
 .debug_aranges
                0x00000cf8       0x20 c:/program files/microchip/xc32/v2.41/bin/bin/../../lib/gcc/pic32c/6.2.1/../../../../pic32c/lib/v7e-m/fpv5/hard\libpic32c.a(fstat.o)
 .debug_aranges
                0x00000d18       0x20 c:/program files/microchip/xc32/v2.41/bin/bin/../../lib/gcc/pic32c/6.2.1/../../../../pic32c/lib/v7e-m/fpv5/hard\libpic32c.a(isatty.o)
 .debug_aranges
                0x00000d38       0x20 c:/program files/microchip/xc32/v2.41/bin/bin/../../lib/gcc/pic32c/6.2.1/../../../../pic32c/lib/v7e-m/fpv5/hard\libpic32c.a(lseek.o)
 .debug_aranges
                0x00000d58       0x20 c:/program files/microchip/xc32/v2.41/bin/bin/../../lib/gcc/pic32c/6.2.1/../../../../pic32c/lib/v7e-m/fpv5/hard\libpic32c.a(read.o)
 .debug_aranges
                0x00000d78       0x20 c:/program files/microchip/xc32/v2.41/bin/bin/../../lib/gcc/pic32c/6.2.1/../../../../pic32c/lib/v7e-m/fpv5/hard\libpic32c.a(write.o)

.debug_ranges   0x00000000      0xc68
 .debug_ranges  0x00000000       0x20 build/default/production/_ext/60165520/plib_clk.o
 .debug_ranges  0x00000020       0x50 build/default/production/_ext/60167248/plib_efc.o
 .debug_ranges  0x00000070       0x28 build/default/production/_ext/1865468468/plib_nvic.o
 .debug_ranges  0x00000098       0x50 build/default/production/_ext/60177924/plib_pio.o
 .debug_ranges  0x000000e8       0x60 build/default/production/_ext/60180192/plib_rtt.o
 .debug_ranges  0x00000148       0x60 build/default/production/_ext/2001315827/plib_usart1.o
 .debug_ranges  0x000001a8       0x18 build/default/production/_ext/163028504/xc32_monitor.o
 .debug_ranges  0x000001c0       0x48 build/default/production/_ext/1881668453/sys_int.o
 .debug_ranges  0x00000208      0x160 build/default/production/_ext/101884895/sys_time.o
 .debug_ranges  0x00000368       0x10 build/default/production/_ext/1171490990/initialization.o
 .debug_ranges  0x00000378       0x10 build/default/production/_ext/1171490990/interrupts.o
 .debug_ranges  0x00000388       0x38 build/default/production/_ext/1171490990/exceptions.o
 .debug_ranges  0x000003c0       0x28 build/default/production/_ext/1171490990/startup_xc32.o
 .debug_ranges  0x000003e8       0x10 build/default/production/_ext/1171490990/tasks.o
 .debug_ranges  0x000003f8       0xb0 build/default/production/_ext/1360937237/aws_bootloader.o
 .debug_ranges  0x000004a8       0x28 build/default/production/_ext/1360937237/aws_crc.o
 .debug_ranges  0x000004d0       0x58 build/default/production/_ext/1360937237/aws_nvm.o
 .debug_ranges  0x00000528       0x10 build/default/production/_ext/1360937237/main.o
 .debug_ranges  0x00000538       0x30 build/default/production/_ext/1360937237/app.o
 .debug_ranges  0x00000568       0x10 c:/program files/microchip/xc32/v2.41/bin/bin/../../lib/gcc/pic32c/6.2.1/../../../../pic32c/lib/v7e-m/fpv5/hard\libpic32c.a(data_init.o)
 .debug_ranges  0x00000578       0x10 c:/program files/microchip/xc32/v2.41/bin/bin/../../lib/gcc/pic32c/6.2.1/../../../../pic32c/lib/v7e-m/fpv5/hard\libc_nano.a(lib_a-init.o)
 .debug_ranges  0x00000588       0x10 c:/program files/microchip/xc32/v2.41/bin/bin/../../lib/gcc/pic32c/6.2.1/../../../../pic32c/lib/v7e-m/fpv5/hard\libc_nano.a(lib_a-memcmp.o)
 .debug_ranges  0x00000598       0x10 c:/program files/microchip/xc32/v2.41/bin/bin/../../lib/gcc/pic32c/6.2.1/../../../../pic32c/lib/v7e-m/fpv5/hard\libc_nano.a(lib_a-memcpy-stub.o)
 .debug_ranges  0x000005a8       0x10 c:/program files/microchip/xc32/v2.41/bin/bin/../../lib/gcc/pic32c/6.2.1/../../../../pic32c/lib/v7e-m/fpv5/hard\libc_nano.a(lib_a-memset.o)
 .debug_ranges  0x000005b8       0x10 c:/program files/microchip/xc32/v2.41/bin/bin/../../lib/gcc/pic32c/6.2.1/../../../../pic32c/lib/v7e-m/fpv5/hard\libc_nano.a(_lib_a-printf.cdnopsuxX.o)
 .debug_ranges  0x000005c8       0x68 c:/program files/microchip/xc32/v2.41/bin/bin/../../lib/gcc/pic32c/6.2.1/../../../../pic32c/lib/v7e-m/fpv5/hard\libc_nano.a(lib_a-puts.o)
 .debug_ranges  0x00000630       0x10 c:/program files/microchip/xc32/v2.41/bin/bin/../../lib/gcc/pic32c/6.2.1/../../../../pic32c/lib/v7e-m/fpv5/hard\libc_nano.a(lib_a-strncpy.o)
 .debug_ranges  0x00000640       0x30 c:/program files/microchip/xc32/v2.41/bin/bin/../../lib/gcc/pic32c/6.2.1/../../../../pic32c/lib/v7e-m/fpv5/hard\libc_nano.a(lib_a-wbuf.o)
 .debug_ranges  0x00000670       0x38 c:/program files/microchip/xc32/v2.41/bin/bin/../../lib/gcc/pic32c/6.2.1/../../../../pic32c/lib/v7e-m/fpv5/hard\libc_nano.a(lib_a-wsetup.o)
 .debug_ranges  0x000006a8       0x68 c:/program files/microchip/xc32/v2.41/bin/bin/../../lib/gcc/pic32c/6.2.1/../../../../pic32c/lib/v7e-m/fpv5/hard\libc_nano.a(lib_a-fflush.o)
 .debug_ranges  0x00000710       0x38 c:/program files/microchip/xc32/v2.41/bin/bin/../../lib/gcc/pic32c/6.2.1/../../../../pic32c/lib/v7e-m/fpv5/hard\libc_nano.a(lib_a-findfp.o)
 .debug_ranges  0x00000748       0x18 c:/program files/microchip/xc32/v2.41/bin/bin/../../lib/gcc/pic32c/6.2.1/../../../../pic32c/lib/v7e-m/fpv5/hard\libc_nano.a(lib_a-fwalk.o)
 .debug_ranges  0x00000760       0x30 c:/program files/microchip/xc32/v2.41/bin/bin/../../lib/gcc/pic32c/6.2.1/../../../../pic32c/lib/v7e-m/fpv5/hard\libc_nano.a(lib_a-makebuf.o)
 .debug_ranges  0x00000790       0x10 c:/program files/microchip/xc32/v2.41/bin/bin/../../lib/gcc/pic32c/6.2.1/../../../../pic32c/lib/v7e-m/fpv5/hard\libc_nano.a(lib_a-nano-freer.o)
 .debug_ranges  0x000007a0       0x58 c:/program files/microchip/xc32/v2.41/bin/bin/../../lib/gcc/pic32c/6.2.1/../../../../pic32c/lib/v7e-m/fpv5/hard\libc_nano.a(lib_a-nano-mallocr.o)
 .debug_ranges  0x000007f8       0xe0 c:/program files/microchip/xc32/v2.41/bin/bin/../../lib/gcc/pic32c/6.2.1/../../../../pic32c/lib/v7e-m/fpv5/hard\libc_nano.a(_lib_a-nano-vfprintf.cdnopsuxX.o)
 .debug_ranges  0x000008d8       0xc8 c:/program files/microchip/xc32/v2.41/bin/bin/../../lib/gcc/pic32c/6.2.1/../../../../pic32c/lib/v7e-m/fpv5/hard\libc_nano.a(lib_a-nano-vfprintf_i.o)
 .debug_ranges  0x000009a0       0x10 c:/program files/microchip/xc32/v2.41/bin/bin/../../lib/gcc/pic32c/6.2.1/../../../../pic32c/lib/v7e-m/fpv5/hard\libc_nano.a(lib_a-sbrkr.o)
 .debug_ranges  0x000009b0       0x30 c:/program files/microchip/xc32/v2.41/bin/bin/../../lib/gcc/pic32c/6.2.1/../../../../pic32c/lib/v7e-m/fpv5/hard\libc_nano.a(lib_a-__ssfputs.o)
 .debug_ranges  0x000009e0       0x30 c:/program files/microchip/xc32/v2.41/bin/bin/../../lib/gcc/pic32c/6.2.1/../../../../pic32c/lib/v7e-m/fpv5/hard\libc_nano.a(lib_a-stdio.o)
 .debug_ranges  0x00000a10       0x10 c:/program files/microchip/xc32/v2.41/bin/bin/../../lib/gcc/pic32c/6.2.1/../../../../pic32c/lib/v7e-m/fpv5/hard\libc_nano.a(lib_a-writer.o)
 .debug_ranges  0x00000a20       0x10 c:/program files/microchip/xc32/v2.41/bin/bin/../../lib/gcc/pic32c/6.2.1/../../../../pic32c/lib/v7e-m/fpv5/hard\libc_nano.a(lib_a-closer.o)
 .debug_ranges  0x00000a30       0x58 c:/program files/microchip/xc32/v2.41/bin/bin/../../lib/gcc/pic32c/6.2.1/../../../../pic32c/lib/v7e-m/fpv5/hard\libc_nano.a(lib_a-fputwc.o)
 .debug_ranges  0x00000a88       0x10 c:/program files/microchip/xc32/v2.41/bin/bin/../../lib/gcc/pic32c/6.2.1/../../../../pic32c/lib/v7e-m/fpv5/hard\libc_nano.a(lib_a-fstatr.o)
 .debug_ranges  0x00000a98       0x10 c:/program files/microchip/xc32/v2.41/bin/bin/../../lib/gcc/pic32c/6.2.1/../../../../pic32c/lib/v7e-m/fpv5/hard\libc_nano.a(lib_a-isattyr.o)
 .debug_ranges  0x00000aa8       0x30 c:/program files/microchip/xc32/v2.41/bin/bin/../../lib/gcc/pic32c/6.2.1/../../../../pic32c/lib/v7e-m/fpv5/hard\libc_nano.a(lib_a-locale.o)
 .debug_ranges  0x00000ad8       0x10 c:/program files/microchip/xc32/v2.41/bin/bin/../../lib/gcc/pic32c/6.2.1/../../../../pic32c/lib/v7e-m/fpv5/hard\libc_nano.a(lib_a-lseekr.o)
 .debug_ranges  0x00000ae8       0x18 c:/program files/microchip/xc32/v2.41/bin/bin/../../lib/gcc/pic32c/6.2.1/../../../../pic32c/lib/v7e-m/fpv5/hard\libc_nano.a(lib_a-mbtowc_r.o)
 .debug_ranges  0x00000b00       0x10 c:/program files/microchip/xc32/v2.41/bin/bin/../../lib/gcc/pic32c/6.2.1/../../../../pic32c/lib/v7e-m/fpv5/hard\libc_nano.a(lib_a-mlock.o)
 .debug_ranges  0x00000b10       0x10 c:/program files/microchip/xc32/v2.41/bin/bin/../../lib/gcc/pic32c/6.2.1/../../../../pic32c/lib/v7e-m/fpv5/hard\libc_nano.a(lib_a-readr.o)
 .debug_ranges  0x00000b20       0x48 c:/program files/microchip/xc32/v2.41/bin/bin/../../lib/gcc/pic32c/6.2.1/../../../../pic32c/lib/v7e-m/fpv5/hard\libc_nano.a(lib_a-reent.o)
 .debug_ranges  0x00000b68       0x18 c:/program files/microchip/xc32/v2.41/bin/bin/../../lib/gcc/pic32c/6.2.1/../../../../pic32c/lib/v7e-m/fpv5/hard\libc_nano.a(lib_a-wcrtomb.o)
 .debug_ranges  0x00000b80       0x18 c:/program files/microchip/xc32/v2.41/bin/bin/../../lib/gcc/pic32c/6.2.1/../../../../pic32c/lib/v7e-m/fpv5/hard\libc_nano.a(lib_a-wctomb_r.o)
 .debug_ranges  0x00000b98       0x10 c:/program files/microchip/xc32/v2.41/bin/bin/../../lib/gcc/pic32c/6.2.1/../../../../pic32c/lib/v7e-m/fpv5/hard\libpic32c.a(_close.o)
 .debug_ranges  0x00000ba8       0x10 c:/program files/microchip/xc32/v2.41/bin/bin/../../lib/gcc/pic32c/6.2.1/../../../../pic32c/lib/v7e-m/fpv5/hard\libpic32c.a(_fstat.o)
 .debug_ranges  0x00000bb8       0x10 c:/program files/microchip/xc32/v2.41/bin/bin/../../lib/gcc/pic32c/6.2.1/../../../../pic32c/lib/v7e-m/fpv5/hard\libpic32c.a(_isatty.o)
 .debug_ranges  0x00000bc8       0x10 c:/program files/microchip/xc32/v2.41/bin/bin/../../lib/gcc/pic32c/6.2.1/../../../../pic32c/lib/v7e-m/fpv5/hard\libpic32c.a(_lseek.o)
 .debug_ranges  0x00000bd8       0x10 c:/program files/microchip/xc32/v2.41/bin/bin/../../lib/gcc/pic32c/6.2.1/../../../../pic32c/lib/v7e-m/fpv5/hard\libpic32c.a(_read.o)
 .debug_ranges  0x00000be8       0x10 c:/program files/microchip/xc32/v2.41/bin/bin/../../lib/gcc/pic32c/6.2.1/../../../../pic32c/lib/v7e-m/fpv5/hard\libpic32c.a(sbrk.o)
 .debug_ranges  0x00000bf8       0x10 c:/program files/microchip/xc32/v2.41/bin/bin/../../lib/gcc/pic32c/6.2.1/../../../../pic32c/lib/v7e-m/fpv5/hard\libpic32c.a(_write.o)
 .debug_ranges  0x00000c08       0x10 c:/program files/microchip/xc32/v2.41/bin/bin/../../lib/gcc/pic32c/6.2.1/../../../../pic32c/lib/v7e-m/fpv5/hard\libpic32c.a(close.o)
 .debug_ranges  0x00000c18       0x10 c:/program files/microchip/xc32/v2.41/bin/bin/../../lib/gcc/pic32c/6.2.1/../../../../pic32c/lib/v7e-m/fpv5/hard\libpic32c.a(fstat.o)
 .debug_ranges  0x00000c28       0x10 c:/program files/microchip/xc32/v2.41/bin/bin/../../lib/gcc/pic32c/6.2.1/../../../../pic32c/lib/v7e-m/fpv5/hard\libpic32c.a(isatty.o)
 .debug_ranges  0x00000c38       0x10 c:/program files/microchip/xc32/v2.41/bin/bin/../../lib/gcc/pic32c/6.2.1/../../../../pic32c/lib/v7e-m/fpv5/hard\libpic32c.a(lseek.o)
 .debug_ranges  0x00000c48       0x10 c:/program files/microchip/xc32/v2.41/bin/bin/../../lib/gcc/pic32c/6.2.1/../../../../pic32c/lib/v7e-m/fpv5/hard\libpic32c.a(read.o)
 .debug_ranges  0x00000c58       0x10 c:/program files/microchip/xc32/v2.41/bin/bin/../../lib/gcc/pic32c/6.2.1/../../../../pic32c/lib/v7e-m/fpv5/hard\libpic32c.a(write.o)

.debug_line     0x00000000     0x943e
 .debug_line    0x00000000      0x194 build/default/production/_ext/60165520/plib_clk.o
 .debug_line    0x00000194      0x2a2 build/default/production/_ext/60167248/plib_efc.o
 .debug_line    0x00000436      0x1c3 build/default/production/_ext/1865468468/plib_nvic.o
 .debug_line    0x000005f9      0x237 build/default/production/_ext/60177924/plib_pio.o
 .debug_line    0x00000830      0x248 build/default/production/_ext/60180192/plib_rtt.o
 .debug_line    0x00000a78      0x2c9 build/default/production/_ext/2001315827/plib_usart1.o
 .debug_line    0x00000d41      0x247 build/default/production/_ext/163028504/xc32_monitor.o
 .debug_line    0x00000f88      0x285 build/default/production/_ext/1881668453/sys_int.o
 .debug_line    0x0000120d      0x7f0 build/default/production/_ext/101884895/sys_time.o
 .debug_line    0x000019fd      0x303 build/default/production/_ext/1171490990/initialization.o
 .debug_line    0x00001d00      0x240 build/default/production/_ext/1171490990/interrupts.o
 .debug_line    0x00001f40      0x265 build/default/production/_ext/1171490990/exceptions.o
 .debug_line    0x000021a5      0x300 build/default/production/_ext/1171490990/startup_xc32.o
 .debug_line    0x000024a5      0x20f build/default/production/_ext/1171490990/tasks.o
 .debug_line    0x000026b4      0x520 build/default/production/_ext/1360937237/aws_bootloader.o
 .debug_line    0x00002bd4      0x1c3 build/default/production/_ext/1360937237/aws_crc.o
 .debug_line    0x00002d97      0x2ee build/default/production/_ext/1360937237/aws_nvm.o
 .debug_line    0x00003085      0x212 build/default/production/_ext/1360937237/main.o
 .debug_line    0x00003297      0x168 build/default/production/_ext/1360937237/app.o
 .debug_line    0x000033ff       0xd8 c:/program files/microchip/xc32/v2.41/bin/bin/../../lib/gcc/pic32c/6.2.1/../../../../pic32c/lib/v7e-m/fpv5/hard\libpic32c.a(data_init.o)
 .debug_line    0x000034d7      0x11d c:/program files/microchip/xc32/v2.41/bin/bin/../../lib/gcc/pic32c/6.2.1/../../../../pic32c/lib/v7e-m/fpv5/hard\libc_nano.a(lib_a-init.o)
 .debug_line    0x000035f4      0x20a c:/program files/microchip/xc32/v2.41/bin/bin/../../lib/gcc/pic32c/6.2.1/../../../../pic32c/lib/v7e-m/fpv5/hard\libc_nano.a(lib_a-memcmp.o)
 .debug_line    0x000037fe      0x218 c:/program files/microchip/xc32/v2.41/bin/bin/../../lib/gcc/pic32c/6.2.1/../../../../pic32c/lib/v7e-m/fpv5/hard\libc_nano.a(lib_a-memcpy-stub.o)
 .debug_line    0x00003a16      0x2ae c:/program files/microchip/xc32/v2.41/bin/bin/../../lib/gcc/pic32c/6.2.1/../../../../pic32c/lib/v7e-m/fpv5/hard\libc_nano.a(lib_a-memset.o)
 .debug_line    0x00003cc4      0x1c8 c:/program files/microchip/xc32/v2.41/bin/bin/../../lib/gcc/pic32c/6.2.1/../../../../pic32c/lib/v7e-m/fpv5/hard\libc_nano.a(_lib_a-printf.cdnopsuxX.o)
 .debug_line    0x00003e8c      0x295 c:/program files/microchip/xc32/v2.41/bin/bin/../../lib/gcc/pic32c/6.2.1/../../../../pic32c/lib/v7e-m/fpv5/hard\libc_nano.a(lib_a-puts.o)
 .debug_line    0x00004121      0x20e c:/program files/microchip/xc32/v2.41/bin/bin/../../lib/gcc/pic32c/6.2.1/../../../../pic32c/lib/v7e-m/fpv5/hard\libc_nano.a(lib_a-strncpy.o)
 .debug_line    0x0000432f      0x277 c:/program files/microchip/xc32/v2.41/bin/bin/../../lib/gcc/pic32c/6.2.1/../../../../pic32c/lib/v7e-m/fpv5/hard\libc_nano.a(lib_a-wbuf.o)
 .debug_line    0x000045a6      0x260 c:/program files/microchip/xc32/v2.41/bin/bin/../../lib/gcc/pic32c/6.2.1/../../../../pic32c/lib/v7e-m/fpv5/hard\libc_nano.a(lib_a-wsetup.o)
 .debug_line    0x00004806      0x2cc c:/program files/microchip/xc32/v2.41/bin/bin/../../lib/gcc/pic32c/6.2.1/../../../../pic32c/lib/v7e-m/fpv5/hard\libc_nano.a(lib_a-fflush.o)
 .debug_line    0x00004ad2      0x301 c:/program files/microchip/xc32/v2.41/bin/bin/../../lib/gcc/pic32c/6.2.1/../../../../pic32c/lib/v7e-m/fpv5/hard\libc_nano.a(lib_a-findfp.o)
 .debug_line    0x00004dd3      0x265 c:/program files/microchip/xc32/v2.41/bin/bin/../../lib/gcc/pic32c/6.2.1/../../../../pic32c/lib/v7e-m/fpv5/hard\libc_nano.a(lib_a-fwalk.o)
 .debug_line    0x00005038      0x17e c:/program files/microchip/xc32/v2.41/bin/bin/../../lib/gcc/pic32c/6.2.1/../../../../pic32c/lib/v7e-m/fpv5/hard\libc_nano.a(lib_a-impure.o)
 .debug_line    0x000051b6      0x32c c:/program files/microchip/xc32/v2.41/bin/bin/../../lib/gcc/pic32c/6.2.1/../../../../pic32c/lib/v7e-m/fpv5/hard\libc_nano.a(lib_a-makebuf.o)
 .debug_line    0x000054e2      0x1dc c:/program files/microchip/xc32/v2.41/bin/bin/../../lib/gcc/pic32c/6.2.1/../../../../pic32c/lib/v7e-m/fpv5/hard\libc_nano.a(lib_a-nano-freer.o)
 .debug_line    0x000056be      0x257 c:/program files/microchip/xc32/v2.41/bin/bin/../../lib/gcc/pic32c/6.2.1/../../../../pic32c/lib/v7e-m/fpv5/hard\libc_nano.a(lib_a-nano-mallocr.o)
 .debug_line    0x00005915      0x3c8 c:/program files/microchip/xc32/v2.41/bin/bin/../../lib/gcc/pic32c/6.2.1/../../../../pic32c/lib/v7e-m/fpv5/hard\libc_nano.a(_lib_a-nano-vfprintf.cdnopsuxX.o)
 .debug_line    0x00005cdd      0x48d c:/program files/microchip/xc32/v2.41/bin/bin/../../lib/gcc/pic32c/6.2.1/../../../../pic32c/lib/v7e-m/fpv5/hard\libc_nano.a(lib_a-nano-vfprintf_i.o)
 .debug_line    0x0000616a      0x212 c:/program files/microchip/xc32/v2.41/bin/bin/../../lib/gcc/pic32c/6.2.1/../../../../pic32c/lib/v7e-m/fpv5/hard\libc_nano.a(lib_a-sbrkr.o)
 .debug_line    0x0000637c      0x364 c:/program files/microchip/xc32/v2.41/bin/bin/../../lib/gcc/pic32c/6.2.1/../../../../pic32c/lib/v7e-m/fpv5/hard\libc_nano.a(lib_a-__ssfputs.o)
 .debug_line    0x000066e0      0x2a9 c:/program files/microchip/xc32/v2.41/bin/bin/../../lib/gcc/pic32c/6.2.1/../../../../pic32c/lib/v7e-m/fpv5/hard\libc_nano.a(lib_a-stdio.o)
 .debug_line    0x00006989      0x212 c:/program files/microchip/xc32/v2.41/bin/bin/../../lib/gcc/pic32c/6.2.1/../../../../pic32c/lib/v7e-m/fpv5/hard\libc_nano.a(lib_a-writer.o)
 .debug_line    0x00006b9b      0x213 c:/program files/microchip/xc32/v2.41/bin/bin/../../lib/gcc/pic32c/6.2.1/../../../../pic32c/lib/v7e-m/fpv5/hard\libc_nano.a(lib_a-closer.o)
 .debug_line    0x00006dae      0x2a8 c:/program files/microchip/xc32/v2.41/bin/bin/../../lib/gcc/pic32c/6.2.1/../../../../pic32c/lib/v7e-m/fpv5/hard\libc_nano.a(lib_a-fputwc.o)
 .debug_line    0x00007056      0x2c1 c:/program files/microchip/xc32/v2.41/bin/bin/../../lib/gcc/pic32c/6.2.1/../../../../pic32c/lib/v7e-m/fpv5/hard\libc_nano.a(lib_a-fstatr.o)
 .debug_line    0x00007317      0x214 c:/program files/microchip/xc32/v2.41/bin/bin/../../lib/gcc/pic32c/6.2.1/../../../../pic32c/lib/v7e-m/fpv5/hard\libc_nano.a(lib_a-isattyr.o)
 .debug_line    0x0000752b      0x327 c:/program files/microchip/xc32/v2.41/bin/bin/../../lib/gcc/pic32c/6.2.1/../../../../pic32c/lib/v7e-m/fpv5/hard\libc_nano.a(lib_a-locale.o)
 .debug_line    0x00007852      0x212 c:/program files/microchip/xc32/v2.41/bin/bin/../../lib/gcc/pic32c/6.2.1/../../../../pic32c/lib/v7e-m/fpv5/hard\libc_nano.a(lib_a-lseekr.o)
 .debug_line    0x00007a64      0x2d5 c:/program files/microchip/xc32/v2.41/bin/bin/../../lib/gcc/pic32c/6.2.1/../../../../pic32c/lib/v7e-m/fpv5/hard\libc_nano.a(lib_a-mbtowc_r.o)
 .debug_line    0x00007d39       0xda c:/program files/microchip/xc32/v2.41/bin/bin/../../lib/gcc/pic32c/6.2.1/../../../../pic32c/lib/v7e-m/fpv5/hard\libc_nano.a(lib_a-memchr.o)
 .debug_line    0x00007e13      0x18d c:/program files/microchip/xc32/v2.41/bin/bin/../../lib/gcc/pic32c/6.2.1/../../../../pic32c/lib/v7e-m/fpv5/hard\libc_nano.a(lib_a-mlock.o)
 .debug_line    0x00007fa0      0x211 c:/program files/microchip/xc32/v2.41/bin/bin/../../lib/gcc/pic32c/6.2.1/../../../../pic32c/lib/v7e-m/fpv5/hard\libc_nano.a(lib_a-readr.o)
 .debug_line    0x000081b1      0x241 c:/program files/microchip/xc32/v2.41/bin/bin/../../lib/gcc/pic32c/6.2.1/../../../../pic32c/lib/v7e-m/fpv5/hard\libc_nano.a(lib_a-reent.o)
 .debug_line    0x000083f2      0x2db c:/program files/microchip/xc32/v2.41/bin/bin/../../lib/gcc/pic32c/6.2.1/../../../../pic32c/lib/v7e-m/fpv5/hard\libc_nano.a(lib_a-wcrtomb.o)
 .debug_line    0x000086cd      0x2d4 c:/program files/microchip/xc32/v2.41/bin/bin/../../lib/gcc/pic32c/6.2.1/../../../../pic32c/lib/v7e-m/fpv5/hard\libc_nano.a(lib_a-wctomb_r.o)
 .debug_line    0x000089a1      0x21e c:/program files/microchip/xc32/v2.41/bin/bin/../../lib/gcc/pic32c/6.2.1/../../../../pic32c/lib/v7e-m/fpv5/hard\libc_nano.a(lib_a-ctype_.o)
 .debug_line    0x00008bbf       0x9c c:/program files/microchip/xc32/v2.41/bin/bin/../../lib/gcc/pic32c/6.2.1/../../../../pic32c/lib/v7e-m/fpv5/hard\libpic32c.a(_close.o)
 .debug_line    0x00008c5b       0x9c c:/program files/microchip/xc32/v2.41/bin/bin/../../lib/gcc/pic32c/6.2.1/../../../../pic32c/lib/v7e-m/fpv5/hard\libpic32c.a(_fstat.o)
 .debug_line    0x00008cf7       0x9d c:/program files/microchip/xc32/v2.41/bin/bin/../../lib/gcc/pic32c/6.2.1/../../../../pic32c/lib/v7e-m/fpv5/hard\libpic32c.a(_isatty.o)
 .debug_line    0x00008d94       0x9c c:/program files/microchip/xc32/v2.41/bin/bin/../../lib/gcc/pic32c/6.2.1/../../../../pic32c/lib/v7e-m/fpv5/hard\libpic32c.a(_lseek.o)
 .debug_line    0x00008e30       0x9b c:/program files/microchip/xc32/v2.41/bin/bin/../../lib/gcc/pic32c/6.2.1/../../../../pic32c/lib/v7e-m/fpv5/hard\libpic32c.a(_read.o)
 .debug_line    0x00008ecb       0xa2 c:/program files/microchip/xc32/v2.41/bin/bin/../../lib/gcc/pic32c/6.2.1/../../../../pic32c/lib/v7e-m/fpv5/hard\libpic32c.a(sbrk.o)
 .debug_line    0x00008f6d       0x9c c:/program files/microchip/xc32/v2.41/bin/bin/../../lib/gcc/pic32c/6.2.1/../../../../pic32c/lib/v7e-m/fpv5/hard\libpic32c.a(_write.o)
 .debug_line    0x00009009       0x9b c:/program files/microchip/xc32/v2.41/bin/bin/../../lib/gcc/pic32c/6.2.1/../../../../pic32c/lib/v7e-m/fpv5/hard\libpic32c.a(close.o)
 .debug_line    0x000090a4      0x102 c:/program files/microchip/xc32/v2.41/bin/bin/../../lib/gcc/pic32c/6.2.1/../../../../pic32c/lib/v7e-m/fpv5/hard\libpic32c.a(fstat.o)
 .debug_line    0x000091a6       0x9c c:/program files/microchip/xc32/v2.41/bin/bin/../../lib/gcc/pic32c/6.2.1/../../../../pic32c/lib/v7e-m/fpv5/hard\libpic32c.a(isatty.o)
 .debug_line    0x00009242       0x9b c:/program files/microchip/xc32/v2.41/bin/bin/../../lib/gcc/pic32c/6.2.1/../../../../pic32c/lib/v7e-m/fpv5/hard\libpic32c.a(lseek.o)
 .debug_line    0x000092dd       0xad c:/program files/microchip/xc32/v2.41/bin/bin/../../lib/gcc/pic32c/6.2.1/../../../../pic32c/lib/v7e-m/fpv5/hard\libpic32c.a(read.o)
 .debug_line    0x0000938a       0xb4 c:/program files/microchip/xc32/v2.41/bin/bin/../../lib/gcc/pic32c/6.2.1/../../../../pic32c/lib/v7e-m/fpv5/hard\libpic32c.a(write.o)

.debug_str      0x00000000      0xf5c
 .debug_str     0x00000000        0x0 build/default/production/_ext/60165520/plib_clk.o
 .debug_str     0x00000000       0x22 build/default/production/_ext/60167248/plib_efc.o
 .debug_str     0x00000022       0x28 build/default/production/_ext/1865468468/plib_nvic.o
 .debug_str     0x0000004a       0x46 build/default/production/_ext/60177924/plib_pio.o
 .debug_str     0x00000090        0x9 build/default/production/_ext/60180192/plib_rtt.o
 .debug_str     0x00000099       0x15 build/default/production/_ext/2001315827/plib_usart1.o
 .debug_str     0x000000ae        0xe build/default/production/_ext/163028504/xc32_monitor.o
 .debug_str     0x000000bc       0x10 build/default/production/_ext/1881668453/sys_int.o
 .debug_str     0x000000cc      0x118 build/default/production/_ext/101884895/sys_time.o
 .debug_str     0x000001e4        0xe build/default/production/_ext/1171490990/initialization.o
 .debug_str     0x000001f2        0xe build/default/production/_ext/1171490990/interrupts.o
 .debug_str     0x00000200        0xe build/default/production/_ext/1171490990/exceptions.o
 .debug_str     0x0000020e        0xe build/default/production/_ext/1171490990/startup_xc32.o
 .debug_str     0x0000021c        0xe build/default/production/_ext/1171490990/tasks.o
 .debug_str     0x0000022a       0x86 build/default/production/_ext/1360937237/aws_bootloader.o
 .debug_str     0x000002b0        0xe build/default/production/_ext/1360937237/aws_crc.o
 .debug_str     0x000002be       0x53 build/default/production/_ext/1360937237/aws_nvm.o
 .debug_str     0x00000311        0xe build/default/production/_ext/1360937237/main.o
 .debug_str     0x0000031f        0xe build/default/production/_ext/1360937237/app.o
 .debug_str     0x0000032d        0x0 c:/program files/microchip/xc32/v2.41/bin/bin/../../lib/gcc/pic32c/6.2.1/../../../../pic32c/lib/v7e-m/fpv5/hard\libpic32c.a(data_init.o)
 .debug_str     0x0000032d        0x0 c:/program files/microchip/xc32/v2.41/bin/bin/../../lib/gcc/pic32c/6.2.1/../../../../pic32c/lib/v7e-m/fpv5/hard\libc_nano.a(lib_a-init.o)
 .debug_str     0x0000032d        0x9 c:/program files/microchip/xc32/v2.41/bin/bin/../../lib/gcc/pic32c/6.2.1/../../../../pic32c/lib/v7e-m/fpv5/hard\libc_nano.a(lib_a-memcmp.o)
 .debug_str     0x00000336        0x9 c:/program files/microchip/xc32/v2.41/bin/bin/../../lib/gcc/pic32c/6.2.1/../../../../pic32c/lib/v7e-m/fpv5/hard\libc_nano.a(lib_a-memcpy-stub.o)
 .debug_str     0x0000033f      0x114 c:/program files/microchip/xc32/v2.41/bin/bin/../../lib/gcc/pic32c/6.2.1/../../../../pic32c/lib/v7e-m/fpv5/hard\libc_nano.a(lib_a-memset.o)
 .debug_str     0x00000453       0x1d c:/program files/microchip/xc32/v2.41/bin/bin/../../lib/gcc/pic32c/6.2.1/../../../../pic32c/lib/v7e-m/fpv5/hard\libc_nano.a(_lib_a-printf.cdnopsuxX.o)
 .debug_str     0x00000470       0x1f c:/program files/microchip/xc32/v2.41/bin/bin/../../lib/gcc/pic32c/6.2.1/../../../../pic32c/lib/v7e-m/fpv5/hard\libc_nano.a(lib_a-puts.o)
 .debug_str     0x0000048f        0x9 c:/program files/microchip/xc32/v2.41/bin/bin/../../lib/gcc/pic32c/6.2.1/../../../../pic32c/lib/v7e-m/fpv5/hard\libc_nano.a(lib_a-strncpy.o)
 .debug_str     0x00000498       0x1f c:/program files/microchip/xc32/v2.41/bin/bin/../../lib/gcc/pic32c/6.2.1/../../../../pic32c/lib/v7e-m/fpv5/hard\libc_nano.a(lib_a-wbuf.o)
 .debug_str     0x000004b7       0x16 c:/program files/microchip/xc32/v2.41/bin/bin/../../lib/gcc/pic32c/6.2.1/../../../../pic32c/lib/v7e-m/fpv5/hard\libc_nano.a(lib_a-wsetup.o)
 .debug_str     0x000004cd       0x16 c:/program files/microchip/xc32/v2.41/bin/bin/../../lib/gcc/pic32c/6.2.1/../../../../pic32c/lib/v7e-m/fpv5/hard\libc_nano.a(lib_a-fflush.o)
 .debug_str     0x000004e3       0x20 c:/program files/microchip/xc32/v2.41/bin/bin/../../lib/gcc/pic32c/6.2.1/../../../../pic32c/lib/v7e-m/fpv5/hard\libc_nano.a(lib_a-findfp.o)
 .debug_str     0x00000503        0x9 c:/program files/microchip/xc32/v2.41/bin/bin/../../lib/gcc/pic32c/6.2.1/../../../../pic32c/lib/v7e-m/fpv5/hard\libc_nano.a(lib_a-fwalk.o)
 .debug_str     0x0000050c        0x9 c:/program files/microchip/xc32/v2.41/bin/bin/../../lib/gcc/pic32c/6.2.1/../../../../pic32c/lib/v7e-m/fpv5/hard\libc_nano.a(lib_a-impure.o)
 .debug_str     0x00000515       0x31 c:/program files/microchip/xc32/v2.41/bin/bin/../../lib/gcc/pic32c/6.2.1/../../../../pic32c/lib/v7e-m/fpv5/hard\libc_nano.a(lib_a-makebuf.o)
 .debug_str     0x00000546       0x27 c:/program files/microchip/xc32/v2.41/bin/bin/../../lib/gcc/pic32c/6.2.1/../../../../pic32c/lib/v7e-m/fpv5/hard\libc_nano.a(lib_a-nano-freer.o)
 .debug_str     0x0000056d       0x31 c:/program files/microchip/xc32/v2.41/bin/bin/../../lib/gcc/pic32c/6.2.1/../../../../pic32c/lib/v7e-m/fpv5/hard\libc_nano.a(lib_a-nano-mallocr.o)
 .debug_str     0x0000059e      0x13b c:/program files/microchip/xc32/v2.41/bin/bin/../../lib/gcc/pic32c/6.2.1/../../../../pic32c/lib/v7e-m/fpv5/hard\libc_nano.a(_lib_a-nano-vfprintf.cdnopsuxX.o)
 .debug_str     0x000006d9      0x11b c:/program files/microchip/xc32/v2.41/bin/bin/../../lib/gcc/pic32c/6.2.1/../../../../pic32c/lib/v7e-m/fpv5/hard\libc_nano.a(lib_a-nano-vfprintf_i.o)
 .debug_str     0x000007f4        0x9 c:/program files/microchip/xc32/v2.41/bin/bin/../../lib/gcc/pic32c/6.2.1/../../../../pic32c/lib/v7e-m/fpv5/hard\libc_nano.a(lib_a-sbrkr.o)
 .debug_str     0x000007fd      0x128 c:/program files/microchip/xc32/v2.41/bin/bin/../../lib/gcc/pic32c/6.2.1/../../../../pic32c/lib/v7e-m/fpv5/hard\libc_nano.a(lib_a-__ssfputs.o)
 .debug_str     0x00000925       0x2b c:/program files/microchip/xc32/v2.41/bin/bin/../../lib/gcc/pic32c/6.2.1/../../../../pic32c/lib/v7e-m/fpv5/hard\libc_nano.a(lib_a-stdio.o)
 .debug_str     0x00000950       0x10 c:/program files/microchip/xc32/v2.41/bin/bin/../../lib/gcc/pic32c/6.2.1/../../../../pic32c/lib/v7e-m/fpv5/hard\libc_nano.a(lib_a-writer.o)
 .debug_str     0x00000960       0x10 c:/program files/microchip/xc32/v2.41/bin/bin/../../lib/gcc/pic32c/6.2.1/../../../../pic32c/lib/v7e-m/fpv5/hard\libc_nano.a(lib_a-closer.o)
 .debug_str     0x00000970       0x32 c:/program files/microchip/xc32/v2.41/bin/bin/../../lib/gcc/pic32c/6.2.1/../../../../pic32c/lib/v7e-m/fpv5/hard\libc_nano.a(lib_a-fputwc.o)
 .debug_str     0x000009a2        0x9 c:/program files/microchip/xc32/v2.41/bin/bin/../../lib/gcc/pic32c/6.2.1/../../../../pic32c/lib/v7e-m/fpv5/hard\libc_nano.a(lib_a-fstatr.o)
 .debug_str     0x000009ab        0x9 c:/program files/microchip/xc32/v2.41/bin/bin/../../lib/gcc/pic32c/6.2.1/../../../../pic32c/lib/v7e-m/fpv5/hard\libc_nano.a(lib_a-isattyr.o)
 .debug_str     0x000009b4      0x134 c:/program files/microchip/xc32/v2.41/bin/bin/../../lib/gcc/pic32c/6.2.1/../../../../pic32c/lib/v7e-m/fpv5/hard\libc_nano.a(lib_a-locale.o)
 .debug_str     0x00000ae8        0x9 c:/program files/microchip/xc32/v2.41/bin/bin/../../lib/gcc/pic32c/6.2.1/../../../../pic32c/lib/v7e-m/fpv5/hard\libc_nano.a(lib_a-lseekr.o)
 .debug_str     0x00000af1      0x114 c:/program files/microchip/xc32/v2.41/bin/bin/../../lib/gcc/pic32c/6.2.1/../../../../pic32c/lib/v7e-m/fpv5/hard\libc_nano.a(lib_a-mbtowc_r.o)
 .debug_str     0x00000c05        0x9 c:/program files/microchip/xc32/v2.41/bin/bin/../../lib/gcc/pic32c/6.2.1/../../../../pic32c/lib/v7e-m/fpv5/hard\libc_nano.a(lib_a-mlock.o)
 .debug_str     0x00000c0e        0x9 c:/program files/microchip/xc32/v2.41/bin/bin/../../lib/gcc/pic32c/6.2.1/../../../../pic32c/lib/v7e-m/fpv5/hard\libc_nano.a(lib_a-readr.o)
 .debug_str     0x00000c17        0x9 c:/program files/microchip/xc32/v2.41/bin/bin/../../lib/gcc/pic32c/6.2.1/../../../../pic32c/lib/v7e-m/fpv5/hard\libc_nano.a(lib_a-reent.o)
 .debug_str     0x00000c20      0x114 c:/program files/microchip/xc32/v2.41/bin/bin/../../lib/gcc/pic32c/6.2.1/../../../../pic32c/lib/v7e-m/fpv5/hard\libc_nano.a(lib_a-wcrtomb.o)
 .debug_str     0x00000d34      0x114 c:/program files/microchip/xc32/v2.41/bin/bin/../../lib/gcc/pic32c/6.2.1/../../../../pic32c/lib/v7e-m/fpv5/hard\libc_nano.a(lib_a-wctomb_r.o)
 .debug_str     0x00000e48      0x114 c:/program files/microchip/xc32/v2.41/bin/bin/../../lib/gcc/pic32c/6.2.1/../../../../pic32c/lib/v7e-m/fpv5/hard\libc_nano.a(lib_a-ctype_.o)
 .debug_str     0x00000f5c        0x0 c:/program files/microchip/xc32/v2.41/bin/bin/../../lib/gcc/pic32c/6.2.1/../../../../pic32c/lib/v7e-m/fpv5/hard\libpic32c.a(_close.o)
 .debug_str     0x00000f5c        0x0 c:/program files/microchip/xc32/v2.41/bin/bin/../../lib/gcc/pic32c/6.2.1/../../../../pic32c/lib/v7e-m/fpv5/hard\libpic32c.a(_fstat.o)
 .debug_str     0x00000f5c        0x0 c:/program files/microchip/xc32/v2.41/bin/bin/../../lib/gcc/pic32c/6.2.1/../../../../pic32c/lib/v7e-m/fpv5/hard\libpic32c.a(_isatty.o)
 .debug_str     0x00000f5c        0x0 c:/program files/microchip/xc32/v2.41/bin/bin/../../lib/gcc/pic32c/6.2.1/../../../../pic32c/lib/v7e-m/fpv5/hard\libpic32c.a(_lseek.o)
 .debug_str     0x00000f5c        0x0 c:/program files/microchip/xc32/v2.41/bin/bin/../../lib/gcc/pic32c/6.2.1/../../../../pic32c/lib/v7e-m/fpv5/hard\libpic32c.a(_read.o)
 .debug_str     0x00000f5c        0x0 c:/program files/microchip/xc32/v2.41/bin/bin/../../lib/gcc/pic32c/6.2.1/../../../../pic32c/lib/v7e-m/fpv5/hard\libpic32c.a(sbrk.o)
 .debug_str     0x00000f5c        0x0 c:/program files/microchip/xc32/v2.41/bin/bin/../../lib/gcc/pic32c/6.2.1/../../../../pic32c/lib/v7e-m/fpv5/hard\libpic32c.a(_write.o)
 .debug_str     0x00000f5c        0x0 c:/program files/microchip/xc32/v2.41/bin/bin/../../lib/gcc/pic32c/6.2.1/../../../../pic32c/lib/v7e-m/fpv5/hard\libpic32c.a(close.o)
 .debug_str     0x00000f5c        0x0 c:/program files/microchip/xc32/v2.41/bin/bin/../../lib/gcc/pic32c/6.2.1/../../../../pic32c/lib/v7e-m/fpv5/hard\libpic32c.a(fstat.o)
 .debug_str     0x00000f5c        0x0 c:/program files/microchip/xc32/v2.41/bin/bin/../../lib/gcc/pic32c/6.2.1/../../../../pic32c/lib/v7e-m/fpv5/hard\libpic32c.a(isatty.o)
 .debug_str     0x00000f5c        0x0 c:/program files/microchip/xc32/v2.41/bin/bin/../../lib/gcc/pic32c/6.2.1/../../../../pic32c/lib/v7e-m/fpv5/hard\libpic32c.a(lseek.o)
 .debug_str     0x00000f5c        0x0 c:/program files/microchip/xc32/v2.41/bin/bin/../../lib/gcc/pic32c/6.2.1/../../../../pic32c/lib/v7e-m/fpv5/hard\libpic32c.a(read.o)
 .debug_str     0x00000f5c        0x0 c:/program files/microchip/xc32/v2.41/bin/bin/../../lib/gcc/pic32c/6.2.1/../../../../pic32c/lib/v7e-m/fpv5/hard\libpic32c.a(write.o)

.debug_frame    0x00000000     0x2108
 .debug_frame   0x00000000       0x6c build/default/production/_ext/60165520/plib_clk.o
 .debug_frame   0x0000006c      0x15c build/default/production/_ext/60167248/plib_efc.o
 .debug_frame   0x000001c8       0xa4 build/default/production/_ext/1865468468/plib_nvic.o
 .debug_frame   0x0000026c      0x170 build/default/production/_ext/60177924/plib_pio.o
 .debug_frame   0x000003dc      0x1ac build/default/production/_ext/60180192/plib_rtt.o
 .debug_frame   0x00000588      0x198 build/default/production/_ext/2001315827/plib_usart1.o
 .debug_frame   0x00000720       0x58 build/default/production/_ext/163028504/xc32_monitor.o
 .debug_frame   0x00000778      0x140 build/default/production/_ext/1881668453/sys_int.o
 .debug_frame   0x000008b8      0x660 build/default/production/_ext/101884895/sys_time.o
 .debug_frame   0x00000f18       0x34 build/default/production/_ext/1171490990/initialization.o
 .debug_frame   0x00000f4c       0x20 build/default/production/_ext/1171490990/interrupts.o
 .debug_frame   0x00000f6c       0xa0 build/default/production/_ext/1171490990/exceptions.o
 .debug_frame   0x0000100c       0x88 build/default/production/_ext/1171490990/startup_xc32.o
 .debug_frame   0x00001094       0x2c build/default/production/_ext/1171490990/tasks.o
 .debug_frame   0x000010c0      0x304 build/default/production/_ext/1360937237/aws_bootloader.o
 .debug_frame   0x000013c4       0x9c build/default/production/_ext/1360937237/aws_crc.o
 .debug_frame   0x00001460      0x184 build/default/production/_ext/1360937237/aws_nvm.o
 .debug_frame   0x000015e4       0x2c build/default/production/_ext/1360937237/main.o
 .debug_frame   0x00001610       0x54 build/default/production/_ext/1360937237/app.o
 .debug_frame   0x00001664       0x2c c:/program files/microchip/xc32/v2.41/bin/bin/../../lib/gcc/pic32c/6.2.1/../../../../pic32c/lib/v7e-m/fpv5/hard\libpic32c.a(data_init.o)
 .debug_frame   0x00001690       0x2c c:/program files/microchip/xc32/v2.41/bin/bin/../../lib/gcc/pic32c/6.2.1/../../../../pic32c/lib/v7e-m/fpv5/hard\libc_nano.a(lib_a-init.o)
 .debug_frame   0x000016bc       0x28 c:/program files/microchip/xc32/v2.41/bin/bin/../../lib/gcc/pic32c/6.2.1/../../../../pic32c/lib/v7e-m/fpv5/hard\libc_nano.a(lib_a-memcmp.o)
 .debug_frame   0x000016e4       0x28 c:/program files/microchip/xc32/v2.41/bin/bin/../../lib/gcc/pic32c/6.2.1/../../../../pic32c/lib/v7e-m/fpv5/hard\libc_nano.a(lib_a-memcpy-stub.o)
 .debug_frame   0x0000170c       0x20 c:/program files/microchip/xc32/v2.41/bin/bin/../../lib/gcc/pic32c/6.2.1/../../../../pic32c/lib/v7e-m/fpv5/hard\libc_nano.a(lib_a-memset.o)
 .debug_frame   0x0000172c       0x40 c:/program files/microchip/xc32/v2.41/bin/bin/../../lib/gcc/pic32c/6.2.1/../../../../pic32c/lib/v7e-m/fpv5/hard\libc_nano.a(_lib_a-printf.cdnopsuxX.o)
 .debug_frame   0x0000176c       0x3c c:/program files/microchip/xc32/v2.41/bin/bin/../../lib/gcc/pic32c/6.2.1/../../../../pic32c/lib/v7e-m/fpv5/hard\libc_nano.a(lib_a-puts.o)
 .debug_frame   0x000017a8       0x2c c:/program files/microchip/xc32/v2.41/bin/bin/../../lib/gcc/pic32c/6.2.1/../../../../pic32c/lib/v7e-m/fpv5/hard\libc_nano.a(lib_a-strncpy.o)
 .debug_frame   0x000017d4       0x40 c:/program files/microchip/xc32/v2.41/bin/bin/../../lib/gcc/pic32c/6.2.1/../../../../pic32c/lib/v7e-m/fpv5/hard\libc_nano.a(lib_a-wbuf.o)
 .debug_frame   0x00001814       0x2c c:/program files/microchip/xc32/v2.41/bin/bin/../../lib/gcc/pic32c/6.2.1/../../../../pic32c/lib/v7e-m/fpv5/hard\libc_nano.a(lib_a-wsetup.o)
 .debug_frame   0x00001840       0x68 c:/program files/microchip/xc32/v2.41/bin/bin/../../lib/gcc/pic32c/6.2.1/../../../../pic32c/lib/v7e-m/fpv5/hard\libc_nano.a(lib_a-fflush.o)
 .debug_frame   0x000018a8       0x9c c:/program files/microchip/xc32/v2.41/bin/bin/../../lib/gcc/pic32c/6.2.1/../../../../pic32c/lib/v7e-m/fpv5/hard\libc_nano.a(lib_a-findfp.o)
 .debug_frame   0x00001944       0x54 c:/program files/microchip/xc32/v2.41/bin/bin/../../lib/gcc/pic32c/6.2.1/../../../../pic32c/lib/v7e-m/fpv5/hard\libc_nano.a(lib_a-fwalk.o)
 .debug_frame   0x00001998       0x58 c:/program files/microchip/xc32/v2.41/bin/bin/../../lib/gcc/pic32c/6.2.1/../../../../pic32c/lib/v7e-m/fpv5/hard\libc_nano.a(lib_a-makebuf.o)
 .debug_frame   0x000019f0       0x38 c:/program files/microchip/xc32/v2.41/bin/bin/../../lib/gcc/pic32c/6.2.1/../../../../pic32c/lib/v7e-m/fpv5/hard\libc_nano.a(lib_a-nano-freer.o)
 .debug_frame   0x00001a28       0x2c c:/program files/microchip/xc32/v2.41/bin/bin/../../lib/gcc/pic32c/6.2.1/../../../../pic32c/lib/v7e-m/fpv5/hard\libc_nano.a(lib_a-nano-mallocr.o)
 .debug_frame   0x00001a54       0x60 c:/program files/microchip/xc32/v2.41/bin/bin/../../lib/gcc/pic32c/6.2.1/../../../../pic32c/lib/v7e-m/fpv5/hard\libc_nano.a(_lib_a-nano-vfprintf.cdnopsuxX.o)
 .debug_frame   0x00001ab4       0x60 c:/program files/microchip/xc32/v2.41/bin/bin/../../lib/gcc/pic32c/6.2.1/../../../../pic32c/lib/v7e-m/fpv5/hard\libc_nano.a(lib_a-nano-vfprintf_i.o)
 .debug_frame   0x00001b14       0x2c c:/program files/microchip/xc32/v2.41/bin/bin/../../lib/gcc/pic32c/6.2.1/../../../../pic32c/lib/v7e-m/fpv5/hard\libc_nano.a(lib_a-sbrkr.o)
 .debug_frame   0x00001b40       0x50 c:/program files/microchip/xc32/v2.41/bin/bin/../../lib/gcc/pic32c/6.2.1/../../../../pic32c/lib/v7e-m/fpv5/hard\libc_nano.a(lib_a-__ssfputs.o)
 .debug_frame   0x00001b90       0x88 c:/program files/microchip/xc32/v2.41/bin/bin/../../lib/gcc/pic32c/6.2.1/../../../../pic32c/lib/v7e-m/fpv5/hard\libc_nano.a(lib_a-stdio.o)
 .debug_frame   0x00001c18       0x2c c:/program files/microchip/xc32/v2.41/bin/bin/../../lib/gcc/pic32c/6.2.1/../../../../pic32c/lib/v7e-m/fpv5/hard\libc_nano.a(lib_a-writer.o)
 .debug_frame   0x00001c44       0x2c c:/program files/microchip/xc32/v2.41/bin/bin/../../lib/gcc/pic32c/6.2.1/../../../../pic32c/lib/v7e-m/fpv5/hard\libc_nano.a(lib_a-closer.o)
 .debug_frame   0x00001c70       0x70 c:/program files/microchip/xc32/v2.41/bin/bin/../../lib/gcc/pic32c/6.2.1/../../../../pic32c/lib/v7e-m/fpv5/hard\libc_nano.a(lib_a-fputwc.o)
 .debug_frame   0x00001ce0       0x2c c:/program files/microchip/xc32/v2.41/bin/bin/../../lib/gcc/pic32c/6.2.1/../../../../pic32c/lib/v7e-m/fpv5/hard\libc_nano.a(lib_a-fstatr.o)
 .debug_frame   0x00001d0c       0x2c c:/program files/microchip/xc32/v2.41/bin/bin/../../lib/gcc/pic32c/6.2.1/../../../../pic32c/lib/v7e-m/fpv5/hard\libc_nano.a(lib_a-isattyr.o)
 .debug_frame   0x00001d38       0x68 c:/program files/microchip/xc32/v2.41/bin/bin/../../lib/gcc/pic32c/6.2.1/../../../../pic32c/lib/v7e-m/fpv5/hard\libc_nano.a(lib_a-locale.o)
 .debug_frame   0x00001da0       0x2c c:/program files/microchip/xc32/v2.41/bin/bin/../../lib/gcc/pic32c/6.2.1/../../../../pic32c/lib/v7e-m/fpv5/hard\libc_nano.a(lib_a-lseekr.o)
 .debug_frame   0x00001dcc       0x48 c:/program files/microchip/xc32/v2.41/bin/bin/../../lib/gcc/pic32c/6.2.1/../../../../pic32c/lib/v7e-m/fpv5/hard\libc_nano.a(lib_a-mbtowc_r.o)
 .debug_frame   0x00001e14       0x30 c:/program files/microchip/xc32/v2.41/bin/bin/../../lib/gcc/pic32c/6.2.1/../../../../pic32c/lib/v7e-m/fpv5/hard\libc_nano.a(lib_a-mlock.o)
 .debug_frame   0x00001e44       0x2c c:/program files/microchip/xc32/v2.41/bin/bin/../../lib/gcc/pic32c/6.2.1/../../../../pic32c/lib/v7e-m/fpv5/hard\libc_nano.a(lib_a-readr.o)
 .debug_frame   0x00001e70       0x5c c:/program files/microchip/xc32/v2.41/bin/bin/../../lib/gcc/pic32c/6.2.1/../../../../pic32c/lib/v7e-m/fpv5/hard\libc_nano.a(lib_a-reent.o)
 .debug_frame   0x00001ecc       0x48 c:/program files/microchip/xc32/v2.41/bin/bin/../../lib/gcc/pic32c/6.2.1/../../../../pic32c/lib/v7e-m/fpv5/hard\libc_nano.a(lib_a-wcrtomb.o)
 .debug_frame   0x00001f14       0x3c c:/program files/microchip/xc32/v2.41/bin/bin/../../lib/gcc/pic32c/6.2.1/../../../../pic32c/lib/v7e-m/fpv5/hard\libc_nano.a(lib_a-wctomb_r.o)
 .debug_frame   0x00001f50       0x20 c:/program files/microchip/xc32/v2.41/bin/bin/../../lib/gcc/pic32c/6.2.1/../../../../pic32c/lib/v7e-m/fpv5/hard\libpic32c.a(_close.o)
 .debug_frame   0x00001f70       0x20 c:/program files/microchip/xc32/v2.41/bin/bin/../../lib/gcc/pic32c/6.2.1/../../../../pic32c/lib/v7e-m/fpv5/hard\libpic32c.a(_fstat.o)
 .debug_frame   0x00001f90       0x20 c:/program files/microchip/xc32/v2.41/bin/bin/../../lib/gcc/pic32c/6.2.1/../../../../pic32c/lib/v7e-m/fpv5/hard\libpic32c.a(_isatty.o)
 .debug_frame   0x00001fb0       0x20 c:/program files/microchip/xc32/v2.41/bin/bin/../../lib/gcc/pic32c/6.2.1/../../../../pic32c/lib/v7e-m/fpv5/hard\libpic32c.a(_lseek.o)
 .debug_frame   0x00001fd0       0x20 c:/program files/microchip/xc32/v2.41/bin/bin/../../lib/gcc/pic32c/6.2.1/../../../../pic32c/lib/v7e-m/fpv5/hard\libpic32c.a(_read.o)
 .debug_frame   0x00001ff0       0x20 c:/program files/microchip/xc32/v2.41/bin/bin/../../lib/gcc/pic32c/6.2.1/../../../../pic32c/lib/v7e-m/fpv5/hard\libpic32c.a(sbrk.o)
 .debug_frame   0x00002010       0x20 c:/program files/microchip/xc32/v2.41/bin/bin/../../lib/gcc/pic32c/6.2.1/../../../../pic32c/lib/v7e-m/fpv5/hard\libpic32c.a(_write.o)
 .debug_frame   0x00002030       0x20 c:/program files/microchip/xc32/v2.41/bin/bin/../../lib/gcc/pic32c/6.2.1/../../../../pic32c/lib/v7e-m/fpv5/hard\libpic32c.a(close.o)
 .debug_frame   0x00002050       0x20 c:/program files/microchip/xc32/v2.41/bin/bin/../../lib/gcc/pic32c/6.2.1/../../../../pic32c/lib/v7e-m/fpv5/hard\libpic32c.a(fstat.o)
 .debug_frame   0x00002070       0x20 c:/program files/microchip/xc32/v2.41/bin/bin/../../lib/gcc/pic32c/6.2.1/../../../../pic32c/lib/v7e-m/fpv5/hard\libpic32c.a(isatty.o)
 .debug_frame   0x00002090       0x20 c:/program files/microchip/xc32/v2.41/bin/bin/../../lib/gcc/pic32c/6.2.1/../../../../pic32c/lib/v7e-m/fpv5/hard\libpic32c.a(lseek.o)
 .debug_frame   0x000020b0       0x2c c:/program files/microchip/xc32/v2.41/bin/bin/../../lib/gcc/pic32c/6.2.1/../../../../pic32c/lib/v7e-m/fpv5/hard\libpic32c.a(read.o)
 .debug_frame   0x000020dc       0x2c c:/program files/microchip/xc32/v2.41/bin/bin/../../lib/gcc/pic32c/6.2.1/../../../../pic32c/lib/v7e-m/fpv5/hard\libpic32c.a(write.o)

.stack          0x20400538      0x7d0
 .stack         0x20400538      0x7d0 stack

.data.__global_locale%1
                0x20400028      0x16c
 .data.__global_locale
                0x20400028      0x16c c:/program files/microchip/xc32/v2.41/bin/bin/../../lib/gcc/pic32c/6.2.1/../../../../pic32c/lib/v7e-m/fpv5/hard\libc_nano.a(lib_a-locale.o)
                0x20400028                __global_locale

.bss.timers%2   0x20400194       0xa0
 .bss.timers    0x20400194       0xa0 build/default/production/_ext/101884895/sys_time.o

.data.impure_data%3
                0x20400234       0x60
 .data.impure_data
                0x20400234       0x60 c:/program files/microchip/xc32/v2.41/bin/bin/../../lib/gcc/pic32c/6.2.1/../../../../pic32c/lib/v7e-m/fpv5/hard\libc_nano.a(lib_a-impure.o)

.bss.gSystemCounterObj%4
                0x20400294       0x38
 .bss.gSystemCounterObj
                0x20400294       0x38 build/default/production/_ext/101884895/sys_time.o

.bss%5          0x204002cc       0x1c
 .bss           0x204002cc       0x1c c:/program files/microchip/xc32/v2.41/bin/bin/../../lib/gcc/pic32c/6.2.1/v7e-m/fpv5/hard/crtbegin.o

.bss.t_start_exec%6
                0x204002e8        0x8
 .bss.t_start_exec
                0x204002e8        0x8 build/default/production/_ext/1360937237/aws_bootloader.o

.bss.status%7   0x204002f0        0x4
 .bss.status    0x204002f0        0x4 build/default/production/_ext/60167248/plib_efc.o

.bss.gpnvmReg.9651%8
                0x204002f4        0x4
 .bss.gpnvmReg.9651
                0x204002f4        0x4 build/default/production/_ext/1171490990/startup_xc32.o

.bss.cmd.9652%9
                0x204002f8        0x4
 .bss.cmd.9652  0x204002f8        0x4 build/default/production/_ext/1171490990/startup_xc32.o

.bss.app_img_to_exec%10
                0x204002fc        0x4
 .bss.app_img_to_exec
                0x204002fc        0x4 build/default/production/_ext/1360937237/aws_bootloader.o

.bss.app_reset_addr_ovr%11
                0x20400300        0x4
 .bss.app_reset_addr_ovr
                0x20400300        0x4 build/default/production/_ext/1360937237/aws_bootloader.o

.bss.crc_lfsr%12
                0x20400304        0x4
 .bss.crc_lfsr  0x20400304        0x4 build/default/production/_ext/1360937237/aws_crc.o

.data._impure_ptr%13
                0x20400308        0x4
 .data._impure_ptr
                0x20400308        0x4 c:/program files/microchip/xc32/v2.41/bin/bin/../../lib/gcc/pic32c/6.2.1/../../../../pic32c/lib/v7e-m/fpv5/hard\libc_nano.a(lib_a-impure.o)
                0x20400308                _impure_ptr

.bss.__malloc_free_list%14
                0x2040030c        0x4
 .bss.__malloc_free_list
                0x2040030c        0x4 c:/program files/microchip/xc32/v2.41/bin/bin/../../lib/gcc/pic32c/6.2.1/../../../../pic32c/lib/v7e-m/fpv5/hard\libc_nano.a(lib_a-nano-mallocr.o)
                0x2040030c                __malloc_free_list

.bss.__malloc_sbrk_start%15
                0x20400310        0x4
 .bss.__malloc_sbrk_start
                0x20400310        0x4 c:/program files/microchip/xc32/v2.41/bin/bin/../../lib/gcc/pic32c/6.2.1/../../../../pic32c/lib/v7e-m/fpv5/hard\libc_nano.a(lib_a-nano-mallocr.o)
                0x20400310                __malloc_sbrk_start

.bss%16         0x20400314        0x4
 .bss           0x20400314        0x4 c:/program files/microchip/xc32/v2.41/bin/bin/../../lib/gcc/pic32c/6.2.1/../../../../pic32c/lib/v7e-m/fpv5/hard\libpic32c.a(sbrk.o)

.bss.aws_boot_state%17
                0x20400318        0x1
 .bss.aws_boot_state
                0x20400318        0x1 build/default/production/_ext/1360937237/aws_bootloader.o

.eh_frame%z1    0x00000000        0x0
 .eh_frame      0x00000000        0x0 c:/program files/microchip/xc32/v2.41/bin/bin/../../lib/gcc/pic32c/6.2.1/v7e-m/fpv5/hard/crtbegin.o

.config_D0000000%18
                0xd0000000        0x4
 .config_D0000000
                0xd0000000        0x4 build/default/production/_ext/1171490990/initialization.o

.rodata%19      0x00400188      0x658
 .rodata        0x00400188      0x658 build/default/production/_ext/1360937237/aws_bootloader.o

.rodata.crc_tbl%20
                0x004007e0      0x400
 .rodata.crc_tbl
                0x004007e0      0x400 build/default/production/_ext/1360937237/aws_crc.o

.text._vfprintf_r_cdnopsuxX%21
                0x00400be0      0x3dc
 .text._vfprintf_r_cdnopsuxX
                0x00400be0      0x3dc c:/program files/microchip/xc32/v2.41/bin/bin/../../lib/gcc/pic32c/6.2.1/../../../../pic32c/lib/v7e-m/fpv5/hard\libc_nano.a(_lib_a-nano-vfprintf.cdnopsuxX.o)
                0x00400be0                _vfprintf_r_cdnopsuxX

.dinit%22       0x00400fbc      0x2e0
 .dinit         0x00400fbc      0x2e0 data_init

.text.AWS_FlashBlockWrite%23
                0x0040129c      0x244
 .text.AWS_FlashBlockWrite
                0x0040129c      0x244 build/default/production/_ext/1360937237/aws_nvm.o
                0x0040129c                AWS_FlashBlockWrite

.text.BootAppValidate%24
                0x004014e0      0x1d0
 .text.BootAppValidate
                0x004014e0      0x1d0 build/default/production/_ext/1360937237/aws_bootloader.o

.text.PIO_Initialize%25
                0x004016b0      0x1b8
 .text.PIO_Initialize
                0x004016b0      0x1b8 build/default/production/_ext/60177924/plib_pio.o
                0x004016b0                PIO_Initialize

.text.AWS_State_ValidateImages%26
                0x00401868      0x148
 .text.AWS_State_ValidateImages
                0x00401868      0x148 build/default/production/_ext/1360937237/aws_bootloader.o

.text.__sflush_r%27
                0x004019b0      0x110
 .text.__sflush_r
                0x004019b0      0x110 c:/program files/microchip/xc32/v2.41/bin/bin/../../lib/gcc/pic32c/6.2.1/../../../../pic32c/lib/v7e-m/fpv5/hard\libc_nano.a(lib_a-fflush.o)
                0x004019b0                __sflush_r

.text.AWS_State_ExecuteImage%28
                0x00401ac0      0x10c
 .text.AWS_State_ExecuteImage
                0x00401ac0      0x10c build/default/production/_ext/1360937237/aws_bootloader.o

.text.SYS_TIME_HwTimerCompareUpdate%29
                0x00401bcc      0x104
 .text.SYS_TIME_HwTimerCompareUpdate
                0x00401bcc      0x104 build/default/production/_ext/101884895/sys_time.o

.rodata._ctype_%30
                0x00401cd0      0x101
 .rodata._ctype_
                0x00401cd0      0x101 c:/program files/microchip/xc32/v2.41/bin/bin/../../lib/gcc/pic32c/6.2.1/../../../../pic32c/lib/v7e-m/fpv5/hard\libc_nano.a(lib_a-ctype_.o)
                0x00401cd0                _ctype_

.text.SYS_TIME_AddToList%31
                0x00401dd4       0xfc
 .text.SYS_TIME_AddToList
                0x00401dd4       0xfc build/default/production/_ext/101884895/sys_time.o

.text.AWS_FlashBlockWriteEx%32
                0x00401ed0       0xf8
 .text.AWS_FlashBlockWriteEx
                0x00401ed0       0xf8 build/default/production/_ext/1360937237/aws_nvm.o
                0x00401ed0                AWS_FlashBlockWriteEx

.text.BootLaunchApp%33
                0x00401fc8       0xf4
 .text.BootLaunchApp
                0x00401fc8       0xf4 build/default/production/_ext/1360937237/aws_bootloader.o

.text._printf_common%34
                0x004020bc       0xec
 .text._printf_common
                0x004020bc       0xec c:/program files/microchip/xc32/v2.41/bin/bin/../../lib/gcc/pic32c/6.2.1/../../../../pic32c/lib/v7e-m/fpv5/hard\libc_nano.a(lib_a-nano-vfprintf_i.o)
                0x004020bc                _printf_common

.text.__swsetup_r%35
                0x004021a8       0xdc
 .text.__swsetup_r
                0x004021a8       0xdc c:/program files/microchip/xc32/v2.41/bin/bin/../../lib/gcc/pic32c/6.2.1/../../../../pic32c/lib/v7e-m/fpv5/hard\libc_nano.a(lib_a-wsetup.o)
                0x004021a8                __swsetup_r

.text.AWS_FlashPagesErase%36
                0x00402284       0xd8
 .text.AWS_FlashPagesErase
                0x00402284       0xd8 build/default/production/_ext/1360937237/aws_nvm.o
                0x00402284                AWS_FlashPagesErase

.text.SYS_TIME_CounterInit%37
                0x0040235c       0xcc
 .text.SYS_TIME_CounterInit
                0x0040235c       0xcc build/default/production/_ext/101884895/sys_time.o

.text.TCM_Configure%38
                0x00402428       0xcc
 .text.TCM_Configure
                0x00402428       0xcc build/default/production/_ext/1171490990/startup_xc32.o

.text._puts_r%39
                0x004024f4       0xcc
 .text._puts_r  0x004024f4       0xcc c:/program files/microchip/xc32/v2.41/bin/bin/../../lib/gcc/pic32c/6.2.1/../../../../pic32c/lib/v7e-m/fpv5/hard\libc_nano.a(lib_a-puts.o)
                0x004024f4                _puts_r

.text.__swbuf_r%40
                0x004025c0       0xbc
 .text.__swbuf_r
                0x004025c0       0xbc c:/program files/microchip/xc32/v2.41/bin/bin/../../lib/gcc/pic32c/6.2.1/../../../../pic32c/lib/v7e-m/fpv5/hard\libc_nano.a(lib_a-wbuf.o)
                0x004025c0                __swbuf_r

.text._malloc_r%41
                0x0040267c       0xbc
 .text._malloc_r
                0x0040267c       0xbc c:/program files/microchip/xc32/v2.41/bin/bin/../../lib/gcc/pic32c/6.2.1/../../../../pic32c/lib/v7e-m/fpv5/hard\libc_nano.a(lib_a-nano-mallocr.o)
                0x0040267c                _malloc_r

.text.BootCopyApp%42
                0x00402738       0xb4
 .text.BootCopyApp
                0x00402738       0xb4 build/default/production/_ext/1360937237/aws_bootloader.o

.text.AWS_FlashEraseChunk%43
                0x004027ec       0xac
 .text.AWS_FlashEraseChunk
                0x004027ec       0xac build/default/production/_ext/1360937237/aws_nvm.o

.text.SYS_TIME_Counter64Get%44
                0x00402898       0xa8
 .text.SYS_TIME_Counter64Get
                0x00402898       0xa8 build/default/production/_ext/101884895/sys_time.o
                0x00402898                SYS_TIME_Counter64Get

.text.RTT_InterruptHandler%45
                0x00402940       0xa0
 .text.RTT_InterruptHandler
                0x00402940       0xa0 build/default/production/_ext/60180192/plib_rtt.o
                0x00402940                RTT_InterruptHandler

.text%46        0x004029e0       0xa0
 .text          0x004029e0       0xa0 c:/program files/microchip/xc32/v2.41/bin/bin/../../lib/gcc/pic32c/6.2.1/../../../../pic32c/lib/v7e-m/fpv5/hard\libc_nano.a(lib_a-memchr.o)
                0x004029e0                memchr

.text._free_r%47
                0x00402a80       0x9c
 .text._free_r  0x00402a80       0x9c c:/program files/microchip/xc32/v2.41/bin/bin/../../lib/gcc/pic32c/6.2.1/../../../../pic32c/lib/v7e-m/fpv5/hard\libc_nano.a(lib_a-nano-freer.o)
                0x00402a80                _free_r

.text.SYS_TIME_RemoveFromList%48
                0x00402b1c       0x98
 .text.SYS_TIME_RemoveFromList
                0x00402b1c       0x98 build/default/production/_ext/101884895/sys_time.o

.text.SYS_TIME_ClientNotify%49
                0x00402bb4       0x88
 .text.SYS_TIME_ClientNotify
                0x00402bb4       0x88 build/default/production/_ext/101884895/sys_time.o

.text.SYS_TIME_UpdateTime%50
                0x00402c3c       0x88
 .text.SYS_TIME_UpdateTime
                0x00402c3c       0x88 build/default/production/_ext/101884895/sys_time.o

.text.SYS_TIME_PLIBCallback%51
                0x00402cc4       0x84
 .text.SYS_TIME_PLIBCallback
                0x00402cc4       0x84 build/default/production/_ext/101884895/sys_time.o

.text.__fputwc%52
                0x00402d48       0x82
 .text.__fputwc
                0x00402d48       0x82 c:/program files/microchip/xc32/v2.41/bin/bin/../../lib/gcc/pic32c/6.2.1/../../../../pic32c/lib/v7e-m/fpv5/hard\libc_nano.a(lib_a-fputwc.o)
                0x00402d48                __fputwc

.text.AWS_State_SetNew%53
                0x00402dcc       0x80
 .text.AWS_State_SetNew
                0x00402dcc       0x80 build/default/production/_ext/1360937237/aws_bootloader.o

.text.__pic32c_data_initialization%54
                0x00402e4c       0x80
 .text.__pic32c_data_initialization
                0x00402e4c       0x80 c:/program files/microchip/xc32/v2.41/bin/bin/../../lib/gcc/pic32c/6.2.1/../../../../pic32c/lib/v7e-m/fpv5/hard\libpic32c.a(data_init.o)
                0x00402e4c                __pic32c_data_initialization

.text.EFC_PageWrite%55
                0x00402ecc       0x7c
 .text.EFC_PageWrite
                0x00402ecc       0x7c build/default/production/_ext/60167248/plib_efc.o
                0x00402ecc                EFC_PageWrite

.text.USART1_Read%56
                0x00402f48       0x7c
 .text.USART1_Read
                0x00402f48       0x7c build/default/production/_ext/2001315827/plib_usart1.o
                0x00402f48                USART1_Read

.text.AWS_State_SaveRunSetNew%57
                0x00402fc4       0x7c
 .text.AWS_State_SaveRunSetNew
                0x00402fc4       0x7c build/default/production/_ext/1360937237/aws_bootloader.o

.text.__sfp%58  0x00403040       0x78
 .text.__sfp    0x00403040       0x78 c:/program files/microchip/xc32/v2.41/bin/bin/../../lib/gcc/pic32c/6.2.1/../../../../pic32c/lib/v7e-m/fpv5/hard\libc_nano.a(lib_a-findfp.o)
                0x00403040                __sfp

.text.__smakebuf_r%59
                0x004030b8       0x78
 .text.__smakebuf_r
                0x004030b8       0x78 c:/program files/microchip/xc32/v2.41/bin/bin/../../lib/gcc/pic32c/6.2.1/../../../../pic32c/lib/v7e-m/fpv5/hard\libc_nano.a(lib_a-makebuf.o)
                0x004030b8                __smakebuf_r

.text.AWS_State_WaitExecute%60
                0x00403130       0x74
 .text.AWS_State_WaitExecute
                0x00403130       0x74 build/default/production/_ext/1360937237/aws_bootloader.o

.text.BootInvalidateAppDcpt%61
                0x004031a4       0x74
 .text.BootInvalidateAppDcpt
                0x004031a4       0x74 build/default/production/_ext/1360937237/aws_bootloader.o

.text.SYS_TIME_UpdateTimerList%62
                0x00403218       0x70
 .text.SYS_TIME_UpdateTimerList
                0x00403218       0x70 build/default/production/_ext/101884895/sys_time.o

.text.SYS_TIME_TimerDestroy%63
                0x00403288       0x6a
 .text.SYS_TIME_TimerDestroy
                0x00403288       0x6a build/default/production/_ext/101884895/sys_time.o
                0x00403288                SYS_TIME_TimerDestroy

.text.CLK_MasterClockInitialize%64
                0x004032f4       0x68
 .text.CLK_MasterClockInitialize
                0x004032f4       0x68 build/default/production/_ext/60165520/plib_clk.o

.text.SYS_TIME_Initialize%65
                0x0040335c       0x60
 .text.SYS_TIME_Initialize
                0x0040335c       0x60 build/default/production/_ext/101884895/sys_time.o
                0x0040335c                SYS_TIME_Initialize

.text.__sinit%66
                0x004033bc       0x60
 .text.__sinit  0x004033bc       0x60 c:/program files/microchip/xc32/v2.41/bin/bin/../../lib/gcc/pic32c/6.2.1/../../../../pic32c/lib/v7e-m/fpv5/hard\libc_nano.a(lib_a-findfp.o)
                0x004033bc                __sinit

.text.USART1_Write%67
                0x0040341c       0x5c
 .text.USART1_Write
                0x0040341c       0x5c build/default/production/_ext/2001315827/plib_usart1.o
                0x0040341c                USART1_Write

.text.SYS_Initialize%68
                0x00403478       0x5c
 .text.SYS_Initialize
                0x00403478       0x5c build/default/production/_ext/1171490990/initialization.o
                0x00403478                SYS_Initialize

.text.Reset_Handler%69
                0x004034d4       0x5c
 .text.Reset_Handler
                0x004034d4       0x5c build/default/production/_ext/1171490990/startup_xc32.o
                0x004034d4                Reset_Handler

.text.BootEraseDstSpace%70
                0x00403530       0x5c
 .text.BootEraseDstSpace
                0x00403530       0x5c build/default/production/_ext/1360937237/aws_bootloader.o

.text.SYS_TIME_ResourceLock%71
                0x0040358c       0x58
 .text.SYS_TIME_ResourceLock
                0x0040358c       0x58 build/default/production/_ext/101884895/sys_time.o

.text.SYS_TIME_GetTimerObject%72
                0x004035e4       0x58
 .text.SYS_TIME_GetTimerObject
                0x004035e4       0x58 build/default/production/_ext/101884895/sys_time.o

.text.__NVIC_SetPriority%73
                0x0040363c       0x54
 .text.__NVIC_SetPriority
                0x0040363c       0x54 build/default/production/_ext/1865468468/plib_nvic.o

.text.AWS_State_Reset%74
                0x00403690       0x54
 .text.AWS_State_Reset
                0x00403690       0x54 build/default/production/_ext/1360937237/aws_bootloader.o

.text._fflush_r%75
                0x004036e4       0x54
 .text._fflush_r
                0x004036e4       0x54 c:/program files/microchip/xc32/v2.41/bin/bin/../../lib/gcc/pic32c/6.2.1/../../../../pic32c/lib/v7e-m/fpv5/hard\libc_nano.a(lib_a-fflush.o)
                0x004036e4                _fflush_r

.text.AWS_State_RestoreSave%76
                0x00403738       0x50
 .text.AWS_State_RestoreSave
                0x00403738       0x50 build/default/production/_ext/1360937237/aws_bootloader.o

.text._wcrtomb_r%77
                0x00403788       0x50
 .text._wcrtomb_r
                0x00403788       0x50 c:/program files/microchip/xc32/v2.41/bin/bin/../../lib/gcc/pic32c/6.2.1/../../../../pic32c/lib/v7e-m/fpv5/hard\libc_nano.a(lib_a-wcrtomb.o)
                0x00403788                _wcrtomb_r

.text.RTT_AlarmValueSet%78
                0x004037d8       0x4c
 .text.RTT_AlarmValueSet
                0x004037d8       0x4c build/default/production/_ext/60180192/plib_rtt.o
                0x004037d8                RTT_AlarmValueSet

.text.RTT_FrequencyGet%79
                0x00403824       0x4c
 .text.RTT_FrequencyGet
                0x00403824       0x4c build/default/production/_ext/60180192/plib_rtt.o
                0x00403824                RTT_FrequencyGet

.text.AWS_CrcAddBuffer%80
                0x00403870       0x4c
 .text.AWS_CrcAddBuffer
                0x00403870       0x4c build/default/production/_ext/1360937237/aws_crc.o
                0x00403870                AWS_CrcAddBuffer

.text.AWS_FlashPagesWrite%81
                0x004038bc       0x4c
 .text.AWS_FlashPagesWrite
                0x004038bc       0x4c build/default/production/_ext/1360937237/aws_nvm.o
                0x004038bc                AWS_FlashPagesWrite

.text.__ssfputs_r%82
                0x00403908       0x4a
 .text.__ssfputs_r
                0x00403908       0x4a c:/program files/microchip/xc32/v2.41/bin/bin/../../lib/gcc/pic32c/6.2.1/../../../../pic32c/lib/v7e-m/fpv5/hard\libc_nano.a(lib_a-__ssfputs.o)
                0x00403908                __ssfputs_r

.text.__NVIC_SetPriorityGrouping%83
                0x00403954       0x48
 .text.__NVIC_SetPriorityGrouping
                0x00403954       0x48 build/default/production/_ext/1865468468/plib_nvic.o

.text.__libc_init_array%84
                0x0040399c       0x48
 .text.__libc_init_array
                0x0040399c       0x48 c:/program files/microchip/xc32/v2.41/bin/bin/../../lib/gcc/pic32c/6.2.1/../../../../pic32c/lib/v7e-m/fpv5/hard\libc_nano.a(lib_a-init.o)
                0x0040399c                __libc_init_array

.text.std.isra.0%85
                0x004039e4       0x48
 .text.std.isra.0
                0x004039e4       0x48 c:/program files/microchip/xc32/v2.41/bin/bin/../../lib/gcc/pic32c/6.2.1/../../../../pic32c/lib/v7e-m/fpv5/hard\libc_nano.a(lib_a-findfp.o)

.text.__swhatbuf_r%86
                0x00403a2c       0x48
 .text.__swhatbuf_r
                0x00403a2c       0x48 c:/program files/microchip/xc32/v2.41/bin/bin/../../lib/gcc/pic32c/6.2.1/../../../../pic32c/lib/v7e-m/fpv5/hard\libc_nano.a(lib_a-makebuf.o)
                0x00403a2c                __swhatbuf_r

.text.__NVIC_DisableIRQ%87
                0x00403a74       0x44
 .text.__NVIC_DisableIRQ
                0x00403a74       0x44 build/default/production/_ext/1881668453/sys_int.o

.text.SYS_INT_SourceDisable%88
                0x00403ab8       0x44
 .text.SYS_INT_SourceDisable
                0x00403ab8       0x44 build/default/production/_ext/1881668453/sys_int.o
                0x00403ab8                SYS_INT_SourceDisable

.text.SYS_TIME_Counter32Update%89
                0x00403afc       0x44
 .text.SYS_TIME_Counter32Update
                0x00403afc       0x44 build/default/production/_ext/101884895/sys_time.o

.text.SYS_TIME_GetElapsedCount%90
                0x00403b40       0x44
 .text.SYS_TIME_GetElapsedCount
                0x00403b40       0x44 build/default/production/_ext/101884895/sys_time.o

.text.FPU_Enable%91
                0x00403b84       0x44
 .text.FPU_Enable
                0x00403b84       0x44 build/default/production/_ext/1171490990/startup_xc32.o

.text%92        0x00403bc8       0x40
 .text          0x00403bc8       0x40 c:/program files/microchip/xc32/v2.41/bin/bin/../../lib/gcc/pic32c/6.2.1/v7e-m/fpv5/hard/crtbegin.o

.text.__NVIC_GetEnableIRQ%93
                0x00403c08       0x40
 .text.__NVIC_GetEnableIRQ
                0x00403c08       0x40 build/default/production/_ext/1881668453/sys_int.o

.text.SYS_TIME_Counter64Update%94
                0x00403c48       0x40
 .text.SYS_TIME_Counter64Update
                0x00403c48       0x40 build/default/production/_ext/101884895/sys_time.o

.text.__NVIC_EnableIRQ%95
                0x00403c88       0x78
 .text.__NVIC_EnableIRQ
                0x00403c88       0x3c build/default/production/_ext/1865468468/plib_nvic.o
 .text.__NVIC_EnableIRQ
                0x00403cc4       0x3c build/default/production/_ext/101884895/sys_time.o

.text.APP_Tasks%97
                0x00403d00       0x3c
 .text.APP_Tasks
                0x00403d00       0x3c build/default/production/_ext/1360937237/app.o
                0x00403d00                APP_Tasks

.text._fwalk_reent%98
                0x00403d3c       0x3c
 .text._fwalk_reent
                0x00403d3c       0x3c c:/program files/microchip/xc32/v2.41/bin/bin/../../lib/gcc/pic32c/6.2.1/../../../../pic32c/lib/v7e-m/fpv5/hard\libc_nano.a(lib_a-fwalk.o)
                0x00403d3c                _fwalk_reent

.text.write%99  0x00403d78       0x3c
 .text.write    0x00403d78       0x3c c:/program files/microchip/xc32/v2.41/bin/bin/../../lib/gcc/pic32c/6.2.1/../../../../pic32c/lib/v7e-m/fpv5/hard\libpic32c.a(write.o)
                0x00403d78                write

.text.run_Application%100
                0x00403db4       0x3a
 .text.run_Application
                0x00403db4       0x3a build/default/production/_ext/1360937237/aws_bootloader.o

.text.USART1_ErrorClear%101
                0x00403df0       0x38
 .text.USART1_ErrorClear
                0x00403df0       0x38 build/default/production/_ext/2001315827/plib_usart1.o

.text.SYS_TIME_ResourceUnlock%102
                0x00403e28       0x38
 .text.SYS_TIME_ResourceUnlock
                0x00403e28       0x38 build/default/production/_ext/101884895/sys_time.o

.text.BootAppAddressValidate%103
                0x00403e60       0x38
 .text.BootAppAddressValidate
                0x00403e60       0x38 build/default/production/_ext/1360937237/aws_bootloader.o

.text.__swrite%104
                0x00403e98       0x38
 .text.__swrite
                0x00403e98       0x38 c:/program files/microchip/xc32/v2.41/bin/bin/../../lib/gcc/pic32c/6.2.1/../../../../pic32c/lib/v7e-m/fpv5/hard\libc_nano.a(lib_a-stdio.o)
                0x00403e98                __swrite

.text.USART1_ErrorGet%105
                0x00403ed0       0x34
 .text.USART1_ErrorGet
                0x00403ed0       0x34 build/default/production/_ext/2001315827/plib_usart1.o
                0x00403ed0                USART1_ErrorGet

.text.bootAssert%106
                0x00403f04       0x34
 .text.bootAssert
                0x00403f04       0x34 build/default/production/_ext/1360937237/aws_bootloader.o

.text.AWS_Bootloader_Task%107
                0x00403f38       0x34
 .text.AWS_Bootloader_Task
                0x00403f38       0x34 build/default/production/_ext/1360937237/aws_bootloader.o
                0x00403f38                AWS_Bootloader_Task

.text.BootCopyDcpt%108
                0x00403f6c       0x34
 .text.BootCopyDcpt
                0x00403f6c       0x34 build/default/production/_ext/1360937237/aws_bootloader.o

.rodata%109     0x00403fa0       0x33
 .rodata        0x00403fa0       0x33 c:/program files/microchip/xc32/v2.41/bin/bin/../../lib/gcc/pic32c/6.2.1/../../../../pic32c/lib/v7e-m/fpv5/hard\libc_nano.a(_lib_a-nano-vfprintf.cdnopsuxX.o)

.text.RTT_TimerValueGet%110
                0x00403fd4       0x30
 .text.RTT_TimerValueGet
                0x00403fd4       0x30 build/default/production/_ext/60180192/plib_rtt.o
                0x00403fd4                RTT_TimerValueGet

.text.USART1_Initialize%111
                0x00404004       0x30
 .text.USART1_Initialize
                0x00404004       0x30 build/default/production/_ext/2001315827/plib_usart1.o
                0x00404004                USART1_Initialize

.text._mon_getc%112
                0x00404034       0x30
 .text._mon_getc
                0x00404034       0x30 build/default/production/_ext/163028504/xc32_monitor.o
                0x00404034                _mon_getc

.text.TCM_Disable%113
                0x00404064       0x30
 .text.TCM_Disable
                0x00404064       0x30 build/default/production/_ext/1171490990/startup_xc32.o

.text.__sfputc_r%114
                0x00404094       0x30
 .text.__sfputc_r
                0x00404094       0x30 c:/program files/microchip/xc32/v2.41/bin/bin/../../lib/gcc/pic32c/6.2.1/../../../../pic32c/lib/v7e-m/fpv5/hard\libc_nano.a(lib_a-__ssfputs.o)

.text.CLK_PLLAInitialize%115
                0x004040c4       0x2c
 .text.CLK_PLLAInitialize
                0x004040c4       0x2c build/default/production/_ext/60165520/plib_clk.o

.text.RTT_Enable%116
                0x004040f0       0x2c
 .text.RTT_Enable
                0x004040f0       0x2c build/default/production/_ext/60180192/plib_rtt.o
                0x004040f0                RTT_Enable

.text.SYS_INT_Disable%117
                0x0040411c       0x2c
 .text.SYS_INT_Disable
                0x0040411c       0x2c build/default/production/_ext/1881668453/sys_int.o
                0x0040411c                SYS_INT_Disable

.text.__sfmoreglue%118
                0x00404148       0x2c
 .text.__sfmoreglue
                0x00404148       0x2c c:/program files/microchip/xc32/v2.41/bin/bin/../../lib/gcc/pic32c/6.2.1/../../../../pic32c/lib/v7e-m/fpv5/hard\libc_nano.a(lib_a-findfp.o)
                0x00404148                __sfmoreglue

.text._sbrk%119
                0x00404174       0x2c
 .text._sbrk    0x00404174       0x2c c:/program files/microchip/xc32/v2.41/bin/bin/../../lib/gcc/pic32c/6.2.1/../../../../pic32c/lib/v7e-m/fpv5/hard\libpic32c.a(sbrk.o)
                0x00404174                _sbrk

.text._mon_putc%120
                0x004041a0       0x2a
 .text._mon_putc
                0x004041a0       0x2a build/default/production/_ext/163028504/xc32_monitor.o
                0x004041a0                _mon_putc

.text.SYS_INT_Restore%121
                0x004041ca       0x2a
 .text.SYS_INT_Restore
                0x004041ca       0x2a build/default/production/_ext/1881668453/sys_int.o
                0x004041ca                SYS_INT_Restore

.text.strncpy%122
                0x004041f4       0x2a
 .text.strncpy  0x004041f4       0x2a c:/program files/microchip/xc32/v2.41/bin/bin/../../lib/gcc/pic32c/6.2.1/../../../../pic32c/lib/v7e-m/fpv5/hard\libc_nano.a(lib_a-strncpy.o)
                0x004041f4                strncpy

.text.RTT_CallbackRegister%123
                0x00404220       0x28
 .text.RTT_CallbackRegister
                0x00404220       0x28 build/default/production/_ext/60180192/plib_rtt.o
                0x00404220                RTT_CallbackRegister

.text.__NVIC_SystemReset%124
                0x00404248       0x28
 .text.__NVIC_SystemReset
                0x00404248       0x28 build/default/production/_ext/1360937237/aws_bootloader.o

.text.AWS_State_Fatal%125
                0x00404270       0x28
 .text.AWS_State_Fatal
                0x00404270       0x28 build/default/production/_ext/1360937237/aws_bootloader.o

.text.read%126  0x00404298       0x28
 .text.read     0x00404298       0x28 c:/program files/microchip/xc32/v2.41/bin/bin/../../lib/gcc/pic32c/6.2.1/../../../../pic32c/lib/v7e-m/fpv5/hard\libpic32c.a(read.o)
                0x00404298                read

.text.RTT_Initialize%127
                0x004042c0       0x24
 .text.RTT_Initialize
                0x004042c0       0x24 build/default/production/_ext/60180192/plib_rtt.o
                0x004042c0                RTT_Initialize

.rodata.awsStateFncTbl%128
                0x004042e4       0x24
 .rodata.awsStateFncTbl
                0x004042e4       0x24 build/default/production/_ext/1360937237/aws_bootloader.o

.text.AWS_EFC_Command_Rom%129
                0x00404308       0x24
 .text.AWS_EFC_Command_Rom
                0x00404308       0x24 build/default/production/_ext/1360937237/aws_nvm.o

.text._printf_cdnopsuxX%130
                0x0040432c       0x24
 .text._printf_cdnopsuxX
                0x0040432c       0x24 c:/program files/microchip/xc32/v2.41/bin/bin/../../lib/gcc/pic32c/6.2.1/../../../../pic32c/lib/v7e-m/fpv5/hard\libc_nano.a(_lib_a-printf.cdnopsuxX.o)
                0x0040432c                __printf_oxX
                0x0040432c                __printf_oxXs
                0x0040432c                __printf_s
                0x0040432c                __printf_u
                0x0040432c                __printf_dis
                0x0040432c                _printf_cdnopsuxX

.text.__sseek%131
                0x00404350       0x24
 .text.__sseek  0x00404350       0x24 c:/program files/microchip/xc32/v2.41/bin/bin/../../lib/gcc/pic32c/6.2.1/../../../../pic32c/lib/v7e-m/fpv5/hard\libc_nano.a(lib_a-stdio.o)
                0x00404350                __sseek

.text._write_r%132
                0x00404374       0x24
 .text._write_r
                0x00404374       0x24 c:/program files/microchip/xc32/v2.41/bin/bin/../../lib/gcc/pic32c/6.2.1/../../../../pic32c/lib/v7e-m/fpv5/hard\libc_nano.a(lib_a-writer.o)
                0x00404374                _write_r

.text._fstat_r%133
                0x00404398       0x24
 .text._fstat_r
                0x00404398       0x24 c:/program files/microchip/xc32/v2.41/bin/bin/../../lib/gcc/pic32c/6.2.1/../../../../pic32c/lib/v7e-m/fpv5/hard\libc_nano.a(lib_a-fstatr.o)
                0x00404398                _fstat_r

.text._lseek_r%134
                0x004043bc       0x24
 .text._lseek_r
                0x004043bc       0x24 c:/program files/microchip/xc32/v2.41/bin/bin/../../lib/gcc/pic32c/6.2.1/../../../../pic32c/lib/v7e-m/fpv5/hard\libc_nano.a(lib_a-lseekr.o)
                0x004043bc                _lseek_r

.text.__ascii_mbtowc%135
                0x004043e0       0x24
 .text.__ascii_mbtowc
                0x004043e0       0x24 c:/program files/microchip/xc32/v2.41/bin/bin/../../lib/gcc/pic32c/6.2.1/../../../../pic32c/lib/v7e-m/fpv5/hard\libc_nano.a(lib_a-mbtowc_r.o)
                0x004043e0                __ascii_mbtowc

.text._read_r%136
                0x00404404       0x24
 .text._read_r  0x00404404       0x24 c:/program files/microchip/xc32/v2.41/bin/bin/../../lib/gcc/pic32c/6.2.1/../../../../pic32c/lib/v7e-m/fpv5/hard\libc_nano.a(lib_a-readr.o)
                0x00404404                _read_r

.text.NVIC_Initialize%137
                0x00404428       0x22
 .text.NVIC_Initialize
                0x00404428       0x22 build/default/production/_ext/1865468468/plib_nvic.o
                0x00404428                NVIC_Initialize

.text.__sread%138
                0x0040444a       0x22
 .text.__sread  0x0040444a       0x22 c:/program files/microchip/xc32/v2.41/bin/bin/../../lib/gcc/pic32c/6.2.1/../../../../pic32c/lib/v7e-m/fpv5/hard\libc_nano.a(lib_a-stdio.o)
                0x0040444a                __sread

.text.RTT_Disable%139
                0x0040446c       0x20
 .text.RTT_Disable
                0x0040446c       0x20 build/default/production/_ext/60180192/plib_rtt.o
                0x0040446c                RTT_Disable

.text.AWS_CrcInitEx%140
                0x0040448c       0x20
 .text.AWS_CrcInitEx
                0x0040448c       0x20 build/default/production/_ext/1360937237/aws_crc.o
                0x0040448c                AWS_CrcInitEx

.rodata.__sf_fake_stderr%141
                0x004044ac       0x20
 .rodata.__sf_fake_stderr
                0x004044ac       0x20 c:/program files/microchip/xc32/v2.41/bin/bin/../../lib/gcc/pic32c/6.2.1/../../../../pic32c/lib/v7e-m/fpv5/hard\libc_nano.a(lib_a-findfp.o)
                0x004044ac                __sf_fake_stderr

.rodata.__sf_fake_stdin%142
                0x004044cc       0x20
 .rodata.__sf_fake_stdin
                0x004044cc       0x20 c:/program files/microchip/xc32/v2.41/bin/bin/../../lib/gcc/pic32c/6.2.1/../../../../pic32c/lib/v7e-m/fpv5/hard\libc_nano.a(lib_a-findfp.o)
                0x004044cc                __sf_fake_stdin

.rodata.__sf_fake_stdout%143
                0x004044ec       0x20
 .rodata.__sf_fake_stdout
                0x004044ec       0x20 c:/program files/microchip/xc32/v2.41/bin/bin/../../lib/gcc/pic32c/6.2.1/../../../../pic32c/lib/v7e-m/fpv5/hard\libc_nano.a(lib_a-findfp.o)
                0x004044ec                __sf_fake_stdout

.text._sbrk_r%144
                0x0040450c       0x20
 .text._sbrk_r  0x0040450c       0x20 c:/program files/microchip/xc32/v2.41/bin/bin/../../lib/gcc/pic32c/6.2.1/../../../../pic32c/lib/v7e-m/fpv5/hard\libc_nano.a(lib_a-sbrkr.o)
                0x0040450c                _sbrk_r

.text._close_r%145
                0x0040452c       0x20
 .text._close_r
                0x0040452c       0x20 c:/program files/microchip/xc32/v2.41/bin/bin/../../lib/gcc/pic32c/6.2.1/../../../../pic32c/lib/v7e-m/fpv5/hard\libc_nano.a(lib_a-closer.o)
                0x0040452c                _close_r

.text._isatty_r%146
                0x0040454c       0x20
 .text._isatty_r
                0x0040454c       0x20 c:/program files/microchip/xc32/v2.41/bin/bin/../../lib/gcc/pic32c/6.2.1/../../../../pic32c/lib/v7e-m/fpv5/hard\libc_nano.a(lib_a-isattyr.o)
                0x0040454c                _isatty_r

.text.memcmp%147
                0x0040456c       0x1e
 .text.memcmp   0x0040456c       0x1e c:/program files/microchip/xc32/v2.41/bin/bin/../../lib/gcc/pic32c/6.2.1/../../../../pic32c/lib/v7e-m/fpv5/hard\libc_nano.a(lib_a-memcmp.o)
                0x0040456c                memcmp

.text.CLOCK_Initialize%148
                0x0040458c       0x1c
 .text.CLOCK_Initialize
                0x0040458c       0x1c build/default/production/_ext/60165520/plib_clk.o
                0x0040458c                CLOCK_Initialize

.text.EFC_Initialize%149
                0x004045a8       0x1c
 .text.EFC_Initialize
                0x004045a8       0x1c build/default/production/_ext/60167248/plib_efc.o
                0x004045a8                EFC_Initialize

.rodata.sysTimePlibAPI%150
                0x004045c4       0x1c
 .rodata.sysTimePlibAPI
                0x004045c4       0x1c build/default/production/_ext/1171490990/initialization.o
                0x004045c4                sysTimePlibAPI

.text._fputwc_r%151
                0x004045e0       0x1c
 .text._fputwc_r
                0x004045e0       0x1c c:/program files/microchip/xc32/v2.41/bin/bin/../../lib/gcc/pic32c/6.2.1/../../../../pic32c/lib/v7e-m/fpv5/hard\libc_nano.a(lib_a-fputwc.o)
                0x004045e0                _fputwc_r

.text.__locale_mb_cur_max%152
                0x004045fc       0x1c
 .text.__locale_mb_cur_max
                0x004045fc       0x1c c:/program files/microchip/xc32/v2.41/bin/bin/../../lib/gcc/pic32c/6.2.1/../../../../pic32c/lib/v7e-m/fpv5/hard\libc_nano.a(lib_a-locale.o)
                0x004045fc                __locale_mb_cur_max

.text.__ascii_wctomb%153
                0x00404618       0x1a
 .text.__ascii_wctomb
                0x00404618       0x1a c:/program files/microchip/xc32/v2.41/bin/bin/../../lib/gcc/pic32c/6.2.1/../../../../pic32c/lib/v7e-m/fpv5/hard\libc_nano.a(lib_a-wctomb_r.o)
                0x00404618                __ascii_wctomb

.text.SYS_TIME_FrequencyGet%154
                0x00404634       0x18
 .text.SYS_TIME_FrequencyGet
                0x00404634       0x18 build/default/production/_ext/101884895/sys_time.o
                0x00404634                SYS_TIME_FrequencyGet

.rodata.__func__.10045%155
                0x0040464c       0x18
 .rodata.__func__.10045
                0x0040464c       0x18 build/default/production/_ext/1360937237/aws_bootloader.o

.text.AWS_CrcResult%156
                0x00404664       0x18
 .text.AWS_CrcResult
                0x00404664       0x18 build/default/production/_ext/1360937237/aws_crc.o
                0x00404664                AWS_CrcResult

.text.AWS_EFC_Command%157
                0x0040467c       0x18
 .text.AWS_EFC_Command
                0x0040467c       0x18 build/default/production/_ext/1360937237/aws_nvm.o

.text.APP_Initialize%158
                0x00404694       0x18
 .text.APP_Initialize
                0x00404694       0x18 build/default/production/_ext/1360937237/app.o
                0x00404694                APP_Initialize

.text.memcpy%159
                0x004046ac       0x16
 .text.memcpy   0x004046ac       0x16 c:/program files/microchip/xc32/v2.41/bin/bin/../../lib/gcc/pic32c/6.2.1/../../../../pic32c/lib/v7e-m/fpv5/hard\libc_nano.a(lib_a-memcpy-stub.o)
                0x004046ac                memcpy

.rodata.__func__.10084%160
                0x004046c4       0x14
 .rodata.__func__.10084
                0x004046c4       0x14 build/default/production/_ext/1360937237/aws_bootloader.o

.text._vfprintf_cdnopsuxX%161
                0x004046d8       0x14
 .text._vfprintf_cdnopsuxX
                0x004046d8       0x14 c:/program files/microchip/xc32/v2.41/bin/bin/../../lib/gcc/pic32c/6.2.1/../../../../pic32c/lib/v7e-m/fpv5/hard\libc_nano.a(_lib_a-nano-vfprintf.cdnopsuxX.o)
                0x004046d8                _vfprintf_cdnopsuxX

.text.AWS_State_Error%162
                0x004046ec       0x10
 .text.AWS_State_Error
                0x004046ec       0x10 build/default/production/_ext/1360937237/aws_bootloader.o

.rodata.__func__.10103%163
                0x004046fc       0x10
 .rodata.__func__.10103
                0x004046fc       0x10 build/default/production/_ext/1360937237/aws_bootloader.o

.text.AWS_CrcInit%164
                0x0040470c       0x10
 .text.AWS_CrcInit
                0x0040470c       0x10 build/default/production/_ext/1360937237/aws_crc.o
                0x0040470c                AWS_CrcInit

.text.main%165  0x0040471c       0x10
 .text.main     0x0040471c       0x10 build/default/production/_ext/1360937237/main.o
                0x0040471c                main

.text.memset%166
                0x0040472c       0x10
 .text.memset   0x0040472c       0x10 c:/program files/microchip/xc32/v2.41/bin/bin/../../lib/gcc/pic32c/6.2.1/../../../../pic32c/lib/v7e-m/fpv5/hard\libc_nano.a(lib_a-memset.o)
                0x0040472c                memset

.text.puts%167  0x0040473c       0x10
 .text.puts     0x0040473c       0x10 c:/program files/microchip/xc32/v2.41/bin/bin/../../lib/gcc/pic32c/6.2.1/../../../../pic32c/lib/v7e-m/fpv5/hard\libc_nano.a(lib_a-puts.o)
                0x0040473c                puts

.text.SYS_Tasks%168
                0x0040474c        0xc
 .text.SYS_Tasks
                0x0040474c        0xc build/default/production/_ext/1171490990/tasks.o
                0x0040474c                SYS_Tasks

.rodata.__func__.10094%169
                0x00404758        0xc
 .rodata.__func__.10094
                0x00404758        0xc build/default/production/_ext/1360937237/aws_bootloader.o

.text._cleanup_r%170
                0x00404764        0xc
 .text._cleanup_r
                0x00404764        0xc c:/program files/microchip/xc32/v2.41/bin/bin/../../lib/gcc/pic32c/6.2.1/../../../../pic32c/lib/v7e-m/fpv5/hard\libc_nano.a(lib_a-findfp.o)
                0x00404764                _cleanup_r

.text.fstat%171
                0x00404770        0xc
 .text.fstat    0x00404770        0xc c:/program files/microchip/xc32/v2.41/bin/bin/../../lib/gcc/pic32c/6.2.1/../../../../pic32c/lib/v7e-m/fpv5/hard\libpic32c.a(fstat.o)
                0x00404770                fstat

.rodata%172     0x0040477c        0xb
 .rodata        0x0040477c        0xb c:/program files/microchip/xc32/v2.41/bin/bin/../../lib/gcc/pic32c/6.2.1/../../../../pic32c/lib/v7e-m/fpv5/hard\libc_nano.a(lib_a-locale.o)

.rodata.sysTimeInitData%173
                0x00404788        0x8
 .rodata.sysTimeInitData
                0x00404788        0x8 build/default/production/_ext/1171490990/initialization.o
                0x00404788                sysTimeInitData

.text.__sclose%174
                0x00404790        0x8
 .text.__sclose
                0x00404790        0x8 c:/program files/microchip/xc32/v2.41/bin/bin/../../lib/gcc/pic32c/6.2.1/../../../../pic32c/lib/v7e-m/fpv5/hard\libc_nano.a(lib_a-stdio.o)
                0x00404790                __sclose

.text.close%175
                0x00404798        0x8
 .text.close    0x00404798        0x8 c:/program files/microchip/xc32/v2.41/bin/bin/../../lib/gcc/pic32c/6.2.1/../../../../pic32c/lib/v7e-m/fpv5/hard\libpic32c.a(close.o)
                0x00404798                close

.text.NonMaskableInt_Handler%176
                0x004047a0        0x6
 .text.NonMaskableInt_Handler
                0x004047a0        0x6 build/default/production/_ext/1171490990/exceptions.o
                0x004047a0                NonMaskableInt_Handler

.text.HardFault_Handler%177
                0x004047a6        0x6
 .text.HardFault_Handler
                0x004047a6        0x6 build/default/production/_ext/1171490990/exceptions.o
                0x004047a6                HardFault_Handler

.text.DebugMonitor_Handler%178
                0x004047ac        0x6
 .text.DebugMonitor_Handler
                0x004047ac        0x6 build/default/production/_ext/1171490990/exceptions.o
                0x004047ac                DebugMonitor_Handler

.text.MemoryManagement_Handler%179
                0x004047b2        0x6
 .text.MemoryManagement_Handler
                0x004047b2        0x6 build/default/production/_ext/1171490990/exceptions.o
                0x004047b2                MemoryManagement_Handler

.text.BusFault_Handler%180
                0x004047b8        0x6
 .text.BusFault_Handler
                0x004047b8        0x6 build/default/production/_ext/1171490990/exceptions.o
                0x004047b8                BusFault_Handler

.text.UsageFault_Handler%181
                0x004047be        0x6
 .text.UsageFault_Handler
                0x004047be        0x6 build/default/production/_ext/1171490990/exceptions.o
                0x004047be                UsageFault_Handler

.rodata._global_impure_ptr%182
                0x004047c4        0x4
 .rodata._global_impure_ptr
                0x004047c4        0x4 c:/program files/microchip/xc32/v2.41/bin/bin/../../lib/gcc/pic32c/6.2.1/../../../../pic32c/lib/v7e-m/fpv5/hard\libc_nano.a(lib_a-impure.o)
                0x004047c4                _global_impure_ptr

.text._close%183
                0x004047c8        0x4
 .text._close   0x004047c8        0x4 c:/program files/microchip/xc32/v2.41/bin/bin/../../lib/gcc/pic32c/6.2.1/../../../../pic32c/lib/v7e-m/fpv5/hard\libpic32c.a(_close.o)
                0x004047c8                _close

.text._fstat%184
                0x004047cc        0x4
 .text._fstat   0x004047cc        0x4 c:/program files/microchip/xc32/v2.41/bin/bin/../../lib/gcc/pic32c/6.2.1/../../../../pic32c/lib/v7e-m/fpv5/hard\libpic32c.a(_fstat.o)
                0x004047cc                _fstat

.text._isatty%185
                0x004047d0        0x4
 .text._isatty  0x004047d0        0x4 c:/program files/microchip/xc32/v2.41/bin/bin/../../lib/gcc/pic32c/6.2.1/../../../../pic32c/lib/v7e-m/fpv5/hard\libpic32c.a(_isatty.o)
                0x004047d0                _isatty

.text._lseek%186
                0x004047d4        0x4
 .text._lseek   0x004047d4        0x4 c:/program files/microchip/xc32/v2.41/bin/bin/../../lib/gcc/pic32c/6.2.1/../../../../pic32c/lib/v7e-m/fpv5/hard\libpic32c.a(_lseek.o)
                0x004047d4                _lseek

.text._read%187
                0x004047d8        0x4
 .text._read    0x004047d8        0x4 c:/program files/microchip/xc32/v2.41/bin/bin/../../lib/gcc/pic32c/6.2.1/../../../../pic32c/lib/v7e-m/fpv5/hard\libpic32c.a(_read.o)
                0x004047d8                _read

.text._write%188
                0x004047dc        0x4
 .text._write   0x004047dc        0x4 c:/program files/microchip/xc32/v2.41/bin/bin/../../lib/gcc/pic32c/6.2.1/../../../../pic32c/lib/v7e-m/fpv5/hard\libpic32c.a(_write.o)
                0x004047dc                _write

.text.isatty%189
                0x004047e0        0x4
 .text.isatty   0x004047e0        0x4 c:/program files/microchip/xc32/v2.41/bin/bin/../../lib/gcc/pic32c/6.2.1/../../../../pic32c/lib/v7e-m/fpv5/hard\libpic32c.a(isatty.o)
                0x004047e0                isatty

.text.lseek%190
                0x004047e4        0x4
 .text.lseek    0x004047e4        0x4 c:/program files/microchip/xc32/v2.41/bin/bin/../../lib/gcc/pic32c/6.2.1/../../../../pic32c/lib/v7e-m/fpv5/hard\libpic32c.a(lseek.o)
                0x004047e4                lseek

.text.Dummy_Handler%191
                0x00402dca        0x2
 .text.Dummy_Handler
                0x00402dca        0x2 build/default/production/_ext/1171490990/interrupts.o
                0x00402dca                DACC_Handler
                0x00402dca                SVCall_Handler
                0x00402dca                TC0_CH2_Handler
                0x00402dca                TC3_CH1_Handler
                0x00402dca                UART3_Handler
                0x00402dca                UART2_Handler
                0x00402dca                TRNG_Handler
                0x00402dca                SysTick_Handler
                0x00402dca                AFEC1_Handler
                0x00402dca                PendSV_Handler
                0x00402dca                TC0_CH1_Handler
                0x00402dca                QSPI_Handler
                0x00402dca                ISI_Handler
                0x00402dca                MCAN0_INT0_Handler
                0x00402dca                RSWDT_Handler
                0x00402dca                USART0_Handler
                0x00402dca                TC1_CH2_Handler
                0x00402dca                USBHS_Handler
                0x00402dca                IXC_Handler
                0x00402dca                CCF_Handler
                0x00402dca                PIOB_Handler
                0x00402dca                RTC_Handler
                0x00402dca                WDT_Handler
                0x00402dca                MCAN1_INT1_Handler
                0x00402dca                HSMCI_Handler
                0x00402dca                UART1_Handler
                0x00402dca                Dummy_Handler
                0x00402dca                TWIHS1_Handler
                0x00402dca                TC3_CH2_Handler
                0x00402dca                XDMAC_Handler
                0x00402dca                UART4_Handler
                0x00402dca                TC2_CH0_Handler
                0x00402dca                PWM1_Handler
                0x00402dca                USART1_Handler
                0x00402dca                PWM0_Handler
                0x00402dca                PIOA_Handler
                0x00402dca                AFEC0_Handler
                0x00402dca                CCW_Handler
                0x00402dca                TC3_CH0_Handler
                0x00402dca                SSC_Handler
                0x00402dca                TC1_CH0_Handler
                0x00402dca                ACC_Handler
                0x00402dca                PMC_Handler
                0x00402dca                GMAC_Handler
                0x00402dca                TC2_CH2_Handler
                0x00402dca                MCAN0_INT1_Handler
                0x00402dca                GMAC_Q5_Handler
                0x00402dca                SUPC_Handler
                0x00402dca                TC2_CH1_Handler
                0x00402dca                MCAN1_INT0_Handler
                0x00402dca                EFC_Handler
                0x00402dca                GMAC_Q1_Handler
                0x00402dca                USART2_Handler
                0x00402dca                SDRAMC_Handler
                0x00402dca                GMAC_Q2_Handler
                0x00402dca                PIOE_Handler
                0x00402dca                SPI1_Handler
                0x00402dca                TC1_CH1_Handler
                0x00402dca                GMAC_Q3_Handler
                0x00402dca                PIOD_Handler
                0x00402dca                TWIHS2_Handler
                0x00402dca                I2SC0_Handler
                0x00402dca                UART0_Handler
                0x00402dca                I2SC1_Handler
                0x00402dca                TC0_CH0_Handler
                0x00402dca                PIOC_Handler
                0x00402dca                GMAC_Q4_Handler
                0x00402dca                FPU_Handler
                0x00402dca                RSTC_Handler
                0x00402dca                ICM_Handler
                0x00402dca                AES_Handler
                0x00402dca                TWIHS0_Handler
                0x00402dca                SPI0_Handler

.text.__malloc_lock%192
                0x004032f2        0x2
 .text.__malloc_lock
                0x004032f2        0x2 c:/program files/microchip/xc32/v2.41/bin/bin/../../lib/gcc/pic32c/6.2.1/../../../../pic32c/lib/v7e-m/fpv5/hard\libc_nano.a(lib_a-mlock.o)
                0x004032f2                __malloc_lock

.text.__malloc_unlock%193
                0x00403952        0x2
 .text.__malloc_unlock
                0x00403952        0x2 c:/program files/microchip/xc32/v2.41/bin/bin/../../lib/gcc/pic32c/6.2.1/../../../../pic32c/lib/v7e-m/fpv5/hard\libc_nano.a(lib_a-mlock.o)
                0x00403952                __malloc_unlock
